APKArchive
AccIndex
Blowfish_decipher
Blowfish_encipher
CRYPTO_memcmp
ExitFunction
F
IMAGE_OFFSETS
IMAGE_OFFSETS_IPAD
IMAGE_OFFSETS_IPAD_HD
IMAGE_OFFSETS_IPAD_LARGE
InitializeBlowfish
JNI_OnLoad
Java_net_fishlabs_gof2hdallandroid2012_GOF2HD2012_GetAchievementId
Java_net_fishlabs_gof2hdallandroid2012_GOF2HD2012_GetLeaderboardScore
Java_net_fishlabs_gof2hdallandroid2012_GOF2HD2012_GetLinkGameGP
Java_net_fishlabs_gof2hdallandroid2012_GOF2HD2012_GetShowAchievements
Java_net_fishlabs_gof2hdallandroid2012_GOF2HD2012_GetShowLeaderboards
Java_net_fishlabs_gof2hdallandroid2012_GOF2HD2012_ReleaseOrigamiSuperClub
Java_net_fishlabs_gof2hdallandroid2012_GOF2HD2012_ResetAchievements
Java_net_fishlabs_gof2hdallandroid2012_GOF2HD2012_ResetLeaderboardScore
Java_net_fishlabs_gof2hdallandroid2012_GOF2HD2012_ResetLinkGameGP
Java_net_fishlabs_gof2hdallandroid2012_GOF2HD2012_ResetShowAchievements
Java_net_fishlabs_gof2hdallandroid2012_GOF2HD2012_ResetShowLeaderboards
Java_net_fishlabs_gof2hdallandroid2012_GOF2HD2012_SetGPIsLinked
Java_net_fishlabs_gof2hdallandroid2012_GOF2HD2012_SetOrigamiSuperClub
Java_net_fishlabs_gof2hdallandroid2012_ToJNI_BackButtonPressed
Java_net_fishlabs_gof2hdallandroid2012_ToJNI_STARTUP
Java_net_fishlabs_gof2hdallandroid2012_ToJNI_SetDirectories
Java_net_fishlabs_gof2hdallandroid2012_ToJNI_correctBoughtDLC1
Java_net_fishlabs_gof2hdallandroid2012_ToJNI_correctBoughtDLC2
Java_net_fishlabs_gof2hdallandroid2012_ToJNI_correctBoughtDLC3
Java_net_fishlabs_gof2hdallandroid2012_ToJNI_correctBoughtDLC4
Java_net_fishlabs_gof2hdallandroid2012_ToJNI_correctBoughtDLC5
Java_net_fishlabs_gof2hdallandroid2012_ToJNI_getDLC1BOUGHT
Java_net_fishlabs_gof2hdallandroid2012_ToJNI_getDLC2BOUGHT
Java_net_fishlabs_gof2hdallandroid2012_ToJNI_getDLC3BOUGHT
Java_net_fishlabs_gof2hdallandroid2012_ToJNI_getDLC4BOUGHT
Java_net_fishlabs_gof2hdallandroid2012_ToJNI_getDLC5BOUGHT
Java_net_fishlabs_gof2hdallandroid2012_ToJNI_getExitFlag
Java_net_fishlabs_gof2hdallandroid2012_ToJNI_getLogoShown
Java_net_fishlabs_gof2hdallandroid2012_ToJNI_getScreenshotFlag
Java_net_fishlabs_gof2hdallandroid2012_ToJNI_handleAccelerometer
Java_net_fishlabs_gof2hdallandroid2012_ToJNI_handleTouchEvent
Java_net_fishlabs_gof2hdallandroid2012_ToJNI_initialize
Java_net_fishlabs_gof2hdallandroid2012_ToJNI_isInMainMenu
Java_net_fishlabs_gof2hdallandroid2012_ToJNI_renderstep
Java_net_fishlabs_gof2hdallandroid2012_ToJNI_resetScreenshotFlag
Java_net_fishlabs_gof2hdallandroid2012_ToJNI_resize
Java_net_fishlabs_gof2hdallandroid2012_ToJNI_sendPauseSignalToGame
Java_net_fishlabs_gof2hdallandroid2012_ToJNI_sendResumeSignalToGame
Java_net_fishlabs_gof2hdallandroid2012_ToJNI_setAPKPath
Java_net_fishlabs_gof2hdallandroid2012_ToJNI_setCountryCodeOfDevice
Java_net_fishlabs_gof2hdallandroid2012_ToJNI_setEnvironmentVariables
Java_net_fishlabs_gof2hdallandroid2012_ToJNI_setZIPPath
Java_net_fishlabs_gof2hdallandroid2012_ToJNI_testPurchase
Java_net_fishlabs_googleplay_ToJNI_gof2hd2012apk
Java_net_fishlabs_googleplay_ToJNI_gof2hd2012getConsumableSKU
Java_net_fishlabs_googleplay_ToJNI_gof2hd2012getPremiumSKU
Java_net_fishlabs_googleplay_ToJNI_iapBoughtConsumable
Java_net_fishlabs_googleplay_ToJNI_iapBoughtPremium
Java_net_fishlabs_googleplay_ToJNI_iapResetNativeItemInformationList
Java_net_fishlabs_googleplay_ToJNI_iapSetNativeItemInformationList
Java_net_fishlabs_playhaven_ToJNI_getCurrentApplicationModule
Java_net_fishlabs_tapjoy_ToJNI_spentAmountOfCredits
LAYER_DIAMETERS
LAYER_SPEEDS
LISTITEMWINDOW_UNITS
OPENSSL_atomic_add
OPENSSL_cleanse
OPENSSL_instrument_bus
OPENSSL_instrument_bus2
OPENSSL_wipe_cpu
P
S
SHA224
SHA224_Final
SHA224_Init
SHA224_Update
SHA256
SHA256_Final
SHA256_Init
SHA256_Transform
SHA256_Update
SubkeyFile
ZIPArchive
ZIPDirectory
_Z10MouseInputii
_Z10MouseWheelff
_Z10OpenAppendPtibj
_Z10SetKeyCodePKcii
_Z10SlowMotionv
_Z10keyPressedPN11AbyssEngine6EngineEi
_Z11ArrayRemoveIP10AEGeometryEvT_R5ArrayIS2_E
_Z11ArrayRemoveIP4ItemEvT_R5ArrayIS2_E
_Z11ArrayRemoveIP4NodeEvT_R5ArrayIS2_E
_Z11ArrayRemoveIP4ShipEvT_R5ArrayIS2_E
_Z11ArrayRemoveIP5AgentEvT_R5ArrayIS2_E
_Z11ArrayRemoveIPN11AbyssEngine4MeshEEvT_R5ArrayIS3_E
_Z11ArrayRemoveIPN11AbyssEngine6StringEEvT_R5ArrayIS3_E
_Z11ArrayRemoveIPN11AbyssEngine9TransformEEvT_R5ArrayIS3_E
_Z11GetKeyStatePc
_Z11GetKeyStatei
_Z11UseJoysticki
_Z11keyReleasedPN11AbyssEngine6EngineEi
_Z12ArrayReleaseIN11AbyssEngine6AEMath6MatrixEEvR5ArrayIT_E
_Z12ArrayReleaseIN11AbyssEngine6AEMath6VectorEEvR5ArrayIT_E
_Z12ArrayReleaseIP4NodeEvR5ArrayIT_E
_Z12ArrayReleaseIPN11AbyssEngine18IApplicationModuleEEvR5ArrayIT_E
_Z12ArrayReleaseIPN11AbyssEngine4MeshEEvR5ArrayIT_E
_Z12ArrayReleaseIbEvR5ArrayIT_E
_Z12ArrayReleaseIiEvR5ArrayIT_E
_Z12ArrayReleaseIjEvR5ArrayIT_E
_Z12CaptureMousei
_Z12keyIsPressedv
_Z13AELabelObjectjjPKc
_Z13GetTouchCountv
_Z13RemoveTouchesv
_Z13loadPortraitsPN11AbyssEngine6EngineE
_Z13loadingScreenPN11AbyssEngine11PaintCanvasEiPv
_Z13simulateTouchPN11AbyssEngine6EngineE
_Z14ArrayAddCachedIN11AbyssEngine6AEMath6MatrixEEvT_R5ArrayIS3_E
_Z14ArrayAddCachedIPN11AbyssEngine4MeshEEvT_R5ArrayIS3_E
_Z14ArrayAddCachedIjEvT_R5ArrayIS0_E
_Z14ArrayRemoveAllIN11AbyssEngine6AEMath6MatrixEEvR5ArrayIT_E
_Z14ArrayRemoveAllIPN11AbyssEngine12SpriteSystemEEvR5ArrayIT_E
_Z14ArrayRemoveAllIPN11AbyssEngine16AESoundInterfaceEEvR5ArrayIT_E
_Z14ArrayRemoveAllIPN11AbyssEngine4MeshEEvR5ArrayIT_E
_Z14ArrayRemoveAllIPN11AbyssEngine6CameraEEvR5ArrayIT_E
_Z14ArrayRemoveAllIPN11AbyssEngine6StringEEvR5ArrayIT_E
_Z14ArrayRemoveAllIPN11AbyssEngine7Image2DEEvR5ArrayIT_E
_Z14ArrayRemoveAllIPN11AbyssEngine7KeyCodeEEvR5ArrayIT_E
_Z14ArrayRemoveAllIPN11AbyssEngine8MaterialEEvR5ArrayIT_E
_Z14ArrayRemoveAllIPN11AbyssEngine9CheatCodeEEvR5ArrayIT_E
_Z14ArrayRemoveAllIPN11AbyssEngine9ImageFontEEvR5ArrayIT_E
_Z14ArrayRemoveAllIPN11AbyssEngine9TransformEEvR5ArrayIT_E
_Z14ArrayRemoveAllIiEvR5ArrayIT_E
_Z14ArrayRemoveAllIjEvR5ArrayIT_E
_Z14ArraySetLengthIN11AbyssEngine6AEMath6MatrixEEvjR5ArrayIT_E
_Z14ArraySetLengthIN11AbyssEngine6AEMath6VectorEEvjR5ArrayIT_E
_Z14ArraySetLengthIP10AEGeometryEvjR5ArrayIT_E
_Z14ArraySetLengthIP10GameRecordEvjR5ArrayIT_E
_Z14ArraySetLengthIP11AbstractGunEvjR5ArrayIT_E
_Z14ArraySetLengthIP11SolarSystemEvjR5ArrayIT_E
_Z14ArraySetLengthIP11TouchButtonEvjR5ArrayIT_E
_Z14ArraySetLengthIP12RadioMessageEvjR5ArrayIT_E
_Z14ArraySetLengthIP14BoundingVolumeEvjR5ArrayIT_E
_Z14ArraySetLengthIP14PendingProductEvjR5ArrayIT_E
_Z14ArraySetLengthIP3GunEvjR5ArrayIT_E
_Z14ArraySetLengthIP4ItemEvjR5ArrayIT_E
_Z14ArraySetLengthIP4NodeEvjR5ArrayIT_E
_Z14ArraySetLengthIP4ShipEvjR5ArrayIT_E
_Z14ArraySetLengthIP5AgentEvjR5ArrayIT_E
_Z14ArraySetLengthIP5ArrayIP3GunEEvjRS0_IT_E
_Z14ArraySetLengthIP5ArrayIP8ListItemEEvjRS0_IT_E
_Z14ArraySetLengthIP5ArrayIP9ImagePartEEvjRS0_IT_E
_Z14ArraySetLengthIP5ArrayIPN11AbyssEngine6AEMath6VectorEEEvjRS0_IT_E
_Z14ArraySetLengthIP5ArrayIPN11AbyssEngine6StringEEEvjRS0_IT_E
_Z14ArraySetLengthIP6PlayerEvjR5ArrayIT_E
_Z14ArraySetLengthIP6WantedEvjR5ArrayIT_E
_Z14ArraySetLengthIP7MissionEvjR5ArrayIT_E
_Z14ArraySetLengthIP7StationEvjR5ArrayIT_E
_Z14ArraySetLengthIP8KIPlayerEvjR5ArrayIT_E
_Z14ArraySetLengthIP8ListItemEvjR5ArrayIT_E
_Z14ArraySetLengthIP8NewsItemEvjR5ArrayIT_E
_Z14ArraySetLengthIP9BluePrintEvjR5ArrayIT_E
_Z14ArraySetLengthIP9ExplosionEvjR5ArrayIT_E
_Z14ArraySetLengthIP9ImagePartEvjR5ArrayIT_E
_Z14ArraySetLengthIPN11AbyssEngine16AESoundInterfaceEEvjR5ArrayIT_E
_Z14ArraySetLengthIPN11AbyssEngine4MeshEEvjR5ArrayIT_E
_Z14ArraySetLengthIPN11AbyssEngine6AEMath6VectorEEvjR5ArrayIT_E
_Z14ArraySetLengthIPN11AbyssEngine6StringEEvjR5ArrayIT_E
_Z14ArraySetLengthIPaEvjR5ArrayIT_E
_Z14ArraySetLengthIPiEvjR5ArrayIT_E
_Z14ArraySetLengthIPvEvjR5ArrayIT_E
_Z14ArraySetLengthIaEvjR5ArrayIT_E
_Z14ArraySetLengthIbEvjR5ArrayIT_E
_Z14ArraySetLengthIfEvjR5ArrayIT_E
_Z14ArraySetLengthIiEvjR5ArrayIT_E
_Z14ArraySetLengthIjEvjR5ArrayIT_E
_Z14GetUseJoystickv
_Z15ArrowKeyPressedv
_Z15GetStringLengthN11AbyssEngine6StringE
_Z15IsDialogVisiblei
_Z15IsInPrimaryMenui
_Z15IsSubMenuActivei
_Z15LowerMouseWheelv
_Z15keyEventPressedPN11AbyssEngine6EngineEPc
_Z16keyEventReleasedPN11AbyssEngine6EngineEPc
_Z17BuildResourceListPN11AbyssEngine6EngineE
_Z18ArrayReleaseArraysIPaEvR5ArrayIT_E
_Z18IsDialogNotVisiblei
_Z19ArrayReleaseClassesIP10AEGeometryEvR5ArrayIT_E
_Z19ArrayReleaseClassesIP10RepairBeamEvR5ArrayIT_E
_Z19ArrayReleaseClassesIP10SpacePointEvR5ArrayIT_E
_Z19ArrayReleaseClassesIP11AbstractGunEvR5ArrayIT_E
_Z19ArrayReleaseClassesIP11SolarSystemEvR5ArrayIT_E
_Z19ArrayReleaseClassesIP11TouchButtonEvR5ArrayIT_E
_Z19ArrayReleaseClassesIP11TouchSliderEvR5ArrayIT_E
_Z19ArrayReleaseClassesIP12RadioMessageEvR5ArrayIT_E
_Z19ArrayReleaseClassesIP14AELowLevelFileEvR5ArrayIT_E
_Z19ArrayReleaseClassesIP14BoundingVolumeEvR5ArrayIT_E
_Z19ArrayReleaseClassesIP14PendingProductEvR5ArrayIT_E
_Z19ArrayReleaseClassesIP18ParticleSystemMeshEvR5ArrayIT_E
_Z19ArrayReleaseClassesIP20ParticleSystemSpriteEvR5ArrayIT_E
_Z19ArrayReleaseClassesIP3GunEvR5ArrayIT_E
_Z19ArrayReleaseClassesIP4ItemEvR5ArrayIT_E
_Z19ArrayReleaseClassesIP4NodeEvR5ArrayIT_E
_Z19ArrayReleaseClassesIP4ShipEvR5ArrayIT_E
_Z19ArrayReleaseClassesIP5AgentEvR5ArrayIT_E
_Z19ArrayReleaseClassesIP5ArrayIP3GunEEvRS0_IT_E
_Z19ArrayReleaseClassesIP5ArrayIP8ListItemEEvRS0_IT_E
_Z19ArrayReleaseClassesIP5ArrayIP9ImagePartEEvRS0_IT_E
_Z19ArrayReleaseClassesIP5ArrayIPN11AbyssEngine6AEMath6VectorEEEvRS0_IT_E
_Z19ArrayReleaseClassesIP5ArrayIPN11AbyssEngine6StringEEEvRS0_IT_E
_Z19ArrayReleaseClassesIP6WantedEvR5ArrayIT_E
_Z19ArrayReleaseClassesIP7StationEvR5ArrayIT_E
_Z19ArrayReleaseClassesIP8KIPlayerEvR5ArrayIT_E
_Z19ArrayReleaseClassesIP8ListItemEvR5ArrayIT_E
_Z19ArrayReleaseClassesIP8NewsItemEvR5ArrayIT_E
_Z19ArrayReleaseClassesIP8WaypointEvR5ArrayIT_E
_Z19ArrayReleaseClassesIP9BluePrintEvR5ArrayIT_E
_Z19ArrayReleaseClassesIP9ExplosionEvR5ArrayIT_E
_Z19ArrayReleaseClassesIP9ImagePartEvR5ArrayIT_E
_Z19ArrayReleaseClassesIP9ObjectiveEvR5ArrayIT_E
_Z19ArrayReleaseClassesIPN11AbyssEngine16ShaderBaseStructEEvR5ArrayIT_E
_Z19ArrayReleaseClassesIPN11AbyssEngine6AEMath6VectorEEvR5ArrayIT_E
_Z19ArrayReleaseClassesIPN11AbyssEngine6StringEEvR5ArrayIT_E
_Z19ArrayReleaseClassesIPN11AbyssEngine8KeyFrameEEvR5ArrayIT_E
_Z19IsDialogNotVisible2i
_Z19IsStarMapNotVisiblei
_Z19OnCreateApplicationPN11AbyssEngine6EngineE
_Z19setValuesForGamepadff
_Z20OnDestroyApplicationPN11AbyssEngine6EngineE
_Z20keyReleasedWithDelayPN11AbyssEngine6EngineEi
_Z21IsInGameSubMenuActivei
_Z21SendStoredKeyUpEventsPN11AbyssEngine6EngineE
_Z21drawControlsInterfacexxP9PlayerEgobjj
_Z22KeyboardAnimationTimerPN11AbyssEngine6EngineE
_Z23ActualizeMouseVisibiltyi
_Z24IsInGameSubMenuNotActivei
_Z24actualizeButtonPositionsPN11AbyssEngine6EngineE
_Z27loadLowTexturesAndMaterialsPN11AbyssEngine6EngineE
_Z31SwitchToOtherMouseConifgurationi
_Z4logePc
_Z4logiPc
_Z7SpeedUpv
_Z7glErrorv
_Z8AddTouchiiii
_Z8ArrayAddIN11AbyssEngine6AEMath6MatrixEEvT_R5ArrayIS3_E
_Z8ArrayAddIN16ParticleSettings11ParticleSetEEvT_R5ArrayIS2_E
_Z8ArrayAddIP10AEGeometryEvT_R5ArrayIS2_E
_Z8ArrayAddIP10RepairBeamEvT_R5ArrayIS2_E
_Z8ArrayAddIP10SpacePointEvT_R5ArrayIS2_E
_Z8ArrayAddIP11AbstractGunEvT_R5ArrayIS2_E
_Z8ArrayAddIP11TouchButtonEvT_R5ArrayIS2_E
_Z8ArrayAddIP11TouchSliderEvT_R5ArrayIS2_E
_Z8ArrayAddIP12RadioMessageEvT_R5ArrayIS2_E
_Z8ArrayAddIP14AELowLevelFileEvT_R5ArrayIS2_E
_Z8ArrayAddIP14AEPakFileEntryEvT_R5ArrayIS2_E
_Z8ArrayAddIP14BoundingVolumeEvT_R5ArrayIS2_E
_Z8ArrayAddIP14PendingProductEvT_R5ArrayIS2_E
_Z8ArrayAddIP18ParticleSystemMeshEvT_R5ArrayIS2_E
_Z8ArrayAddIP20ParticleSystemSpriteEvT_R5ArrayIS2_E
_Z8ArrayAddIP3GunEvT_R5ArrayIS2_E
_Z8ArrayAddIP4ItemEvT_R5ArrayIS2_E
_Z8ArrayAddIP4NodeEvT_R5ArrayIS2_E
_Z8ArrayAddIP4ShipEvT_R5ArrayIS2_E
_Z8ArrayAddIP6PlayerEvPKT_jR5ArrayIS2_E
_Z8ArrayAddIP6PlayerEvRK5ArrayIT_ERS4_
_Z8ArrayAddIP6PlayerEvT_R5ArrayIS2_E
_Z8ArrayAddIP6WantedEvT_R5ArrayIS2_E
_Z8ArrayAddIP8KIPlayerEvT_R5ArrayIS2_E
_Z8ArrayAddIP8ListItemEvT_R5ArrayIS2_E
_Z8ArrayAddIP8NewsItemEvT_R5ArrayIS2_E
_Z8ArrayAddIP8WaypointEvT_R5ArrayIS2_E
_Z8ArrayAddIP9ObjectiveEvT_R5ArrayIS2_E
_Z8ArrayAddIPN11AbyssEngine11TokenStructEEvT_R5ArrayIS3_E
_Z8ArrayAddIPN11AbyssEngine12SpriteSystemEEvT_R5ArrayIS3_E
_Z8ArrayAddIPN11AbyssEngine15AELoadedTextureEEvT_R5ArrayIS3_E
_Z8ArrayAddIPN11AbyssEngine16ShaderBaseStructEEvT_R5ArrayIS3_E
_Z8ArrayAddIPN11AbyssEngine18IApplicationModuleEEvT_R5ArrayIS3_E
_Z8ArrayAddIPN11AbyssEngine4MeshEEvT_R5ArrayIS3_E
_Z8ArrayAddIPN11AbyssEngine6AEMath6VectorEEvT_R5ArrayIS4_E
_Z8ArrayAddIPN11AbyssEngine6CameraEEvT_R5ArrayIS3_E
_Z8ArrayAddIPN11AbyssEngine6StringEEvT_R5ArrayIS3_E
_Z8ArrayAddIPN11AbyssEngine7Image2DEEvT_R5ArrayIS3_E
_Z8ArrayAddIPN11AbyssEngine7KeyCodeEEvT_R5ArrayIS3_E
_Z8ArrayAddIPN11AbyssEngine8KeyFrameEEvT_R5ArrayIS3_E
_Z8ArrayAddIPN11AbyssEngine8MaterialEEvT_R5ArrayIS3_E
_Z8ArrayAddIPN11AbyssEngine8ResourceEEvPKT_jR5ArrayIS3_E
_Z8ArrayAddIPN11AbyssEngine8ResourceEEvT_R5ArrayIS3_E
_Z8ArrayAddIPN11AbyssEngine9CheatCodeEEvT_R5ArrayIS3_E
_Z8ArrayAddIPN11AbyssEngine9ImageFontEEvT_R5ArrayIS3_E
_Z8ArrayAddIPN11AbyssEngine9TransformEEvT_R5ArrayIS3_E
_Z8ArrayAddIbEvT_R5ArrayIS0_E
_Z8ArrayAddIfEvT_R5ArrayIS0_E
_Z8ArrayAddIhEvPKT_jR5ArrayIS0_E
_Z8ArrayAddIiEvT_R5ArrayIS0_E
_Z8ArrayAddIjEvT_R5ArrayIS0_E
_Z8ArrayAddItEvT_R5ArrayIS0_E
_Z8ArrayAddIxEvT_R5ArrayIS0_E
_Z8ArraySetIN16ParticleSettings11ParticleSetEEvPKT_jR5ArrayIS2_E
_Z8ArraySetIN16ParticleSettings11ParticleSetEEvRK5ArrayIT_ERS4_
_Z8ArraySetIPN11AbyssEngine8KeyFrameEEvPKT_jR5ArrayIS3_E
_Z8ArraySetIPN11AbyssEngine8KeyFrameEEvRK5ArrayIT_ERS5_
_Z8GetTouchi
_Z9GetEnginev
_Z9HideMousev
_ZN10AEGeometry10getScalingEv
_ZN10AEGeometry10setScalingERKN11AbyssEngine6AEMath6VectorE
_ZN10AEGeometry10setScalingEf
_ZN10AEGeometry10setScalingEfff
_ZN10AEGeometry10setVisibleEb
_ZN10AEGeometry11getPositionEv
_ZN10AEGeometry11getRotationEv
_ZN10AEGeometry11getUpVectorEv
_ZN10AEGeometry11moveForwardEf
_ZN10AEGeometry11setPositionERKN11AbyssEngine6AEMath6VectorE
_ZN10AEGeometry11setPositionEfff
_ZN10AEGeometry11setRotationERKN11AbyssEngine6AEMath6VectorE
_ZN10AEGeometry11setRotationEfff
_ZN10AEGeometry12getDirectionEv
_ZN10AEGeometry12setDirectionERKN11AbyssEngine6AEMath6VectorES4_
_ZN10AEGeometry12setLodMeshesEPtPii
_ZN10AEGeometry14getRightVectorEv
_ZN10AEGeometry16setRotationOrderEN11AbyssEngine6AEMath13RotationOrderE
_ZN10AEGeometry17getParentPositionEv
_ZN10AEGeometry17setLodChildMeshesEPt
_ZN10AEGeometry18getReferenceMatrixEv
_ZN10AEGeometry20setLodChildTransformEj
_ZN10AEGeometry21updateReferenceMatrixEv
_ZN10AEGeometry23setLodMeshesWithMeshIdsEPtPjPii
_ZN10AEGeometry24DEBUG_setMeshMergerIndexEiP13LodMeshMerger
_ZN10AEGeometry25setLodLastVisibleDistanceEy
_ZN10AEGeometry5getIDEv
_ZN10AEGeometry6hasLodEv
_ZN10AEGeometry6renderEv
_ZN10AEGeometry6rotateERKN11AbyssEngine6AEMath6VectorE
_ZN10AEGeometry6rotateEfff
_ZN10AEGeometry7setMeshEt
_ZN10AEGeometry8addChildEj
_ZN10AEGeometry9getMatrixEv
_ZN10AEGeometry9isVisibleEv
_ZN10AEGeometry9setMatrixERKN11AbyssEngine6AEMath6MatrixE
_ZN10AEGeometry9translateERKN11AbyssEngine6AEMath6VectorE
_ZN10AEGeometry9translateEfff
_ZN10AEGeometry9updateLodERKN11AbyssEngine6AEMath6VectorEf
_ZN10AEGeometryC1EPN11AbyssEngine11PaintCanvasE
_ZN10AEGeometryC1EtPN11AbyssEngine11PaintCanvasEb
_ZN10AEGeometryC2EPN11AbyssEngine11PaintCanvasE
_ZN10AEGeometryC2EtPN11AbyssEngine11PaintCanvasEb
_ZN10AEGeometryD1Ev
_ZN10AEGeometryD2Ev
_ZN10GameRecord4loadEv
_ZN10GameRecordC1Ev
_ZN10GameRecordC2Ev
_ZN10GameRecordD1Ev
_ZN10GameRecordD2Ev
_ZN10HangarList11fillBuyListEP8ListItem
_ZN10HangarList11initShipTabEP4Ship
_ZN10HangarList11initShopTabEP5ArrayIP4ItemEPS0_IP4ShipE
_ZN10HangarList13getCurrentTabEv
_ZN10HangarList13setCurrentTabEib
_ZN10HangarList14getCurrentItemEv
_ZN10HangarList16getCurrentItemAtEi
_ZN10HangarList16getCurrentLengthEv
_ZN10HangarList16initBlueprintTabEP5ArrayIP9BluePrintE
_ZN10HangarList18getCurrentTabItemsEv
_ZN10HangarList19fillIngredientsListEP9BluePrintb
_ZN10HangarList19getCurrentItemIndexEv
_ZN10HangarList19setCurrentItemIndexEi
_ZN10HangarList4initEP4ShipP5ArrayIP4ItemEPS2_IS1_EPS2_IP9BluePrintE
_ZN10HangarList7releaseEv
_ZN10HangarList8getItemsEv
_ZN10HangarListC1Ev
_ZN10HangarListC2Ev
_ZN10HangarListD1Ev
_ZN10HangarListD2Ev
_ZN10LODManager11forceUpdateEib
_ZN10LODManager12removeObjectEP10AEGeometry
_ZN10LODManager6updateEi
_ZN10LODManager9addObjectEP10AEGeometry
_ZN10LODManagerC1Ev
_ZN10LODManagerC2Ev
_ZN10LODManagerD1Ev
_ZN10LODManagerD2Ev
_ZN10MeshMerger10setEnabledEib
_ZN10MeshMerger13transformMeshEPN11AbyssEngine4MeshERKNS0_6AEMath6MatrixE
_ZN10MeshMerger4initEv
_ZN10MeshMerger6renderEv
_ZN10MeshMerger6setLodEia
_ZN10MeshMerger6updateEv
_ZN10MeshMerger7setMeshEiat
_ZN10MeshMerger9setMatrixEiRKN11AbyssEngine6AEMath6MatrixE
_ZN10MeshMergerC1ERK5ArrayItES0_IN11AbyssEngine6AEMath6MatrixEEPNS4_11PaintCanvasEt
_ZN10MeshMergerC1EiiPN11AbyssEngine11PaintCanvasEt
_ZN10MeshMergerC2ERK5ArrayItES0_IN11AbyssEngine6AEMath6MatrixEEPNS4_11PaintCanvasEt
_ZN10MeshMergerC2EiiPN11AbyssEngine11PaintCanvasEt
_ZN10MeshMergerD1Ev
_ZN10MeshMergerD2Ev
_ZN10MiningGame12getOreAmountEv
_ZN10MiningGame15getAsteroidTypeEv
_ZN10MiningGame16isInCurrentLayerEv
_ZN10MiningGame2upEf
_ZN10MiningGame4downEf
_ZN10MiningGame4leftEf
_ZN10MiningGame5rightEf
_ZN10MiningGame6updateEi
_ZN10MiningGame7gameWonEv
_ZN10MiningGame7gotCoreEv
_ZN10MiningGame8gameLostEv
_ZN10MiningGame8render2DEv
_ZN10MiningGameC1EiiP3Hud
_ZN10MiningGameC2EiiP3Hud
_ZN10MiningGameD1Ev
_ZN10MiningGameD2Ev
_ZN10ModStation10OnKeyPressExx
_ZN10ModStation10OnRender2DEv
_ZN10ModStation10OnRender3DEv
_ZN10ModStation10OnTouchEndEii
_ZN10ModStation10OnTouchEndEiiPv
_ZN10ModStation10checkHintsEv
_ZN10ModStation10resetLightEv
_ZN10ModStation11OnTouchMoveEii
_ZN10ModStation11OnTouchMoveEiiPv
_ZN10ModStation11checkMedalsEv
_ZN10ModStation11showDlcMenuEv
_ZN10ModStation12OnInitializeEv
_ZN10ModStation12OnKeyReleaseExx
_ZN10ModStation12OnTouchBeginEii
_ZN10ModStation12OnTouchBeginEiiPv
_ZN10ModStation12enterStationEv
_ZN10ModStation12leaveStationEv
_ZN10ModStation13setGameLoadedEv
_ZN10ModStation13showMapWindowEv
_ZN10ModStation14addAchievementEii
_ZN10ModStation14showCBSMessageEv
_ZN10ModStation17ShowLoadingScreenEv
_ZN10ModStation20checkPendingProductsEv
_ZN10ModStation21resetIdleCamForHangarEv
_ZN10ModStation8OnResumeEv
_ZN10ModStation8OnUpdateEv
_ZN10ModStation8autosaveEv
_ZN10ModStation9OnReleaseEv
_ZN10ModStation9OnSuspendEv
_ZN10ModStationC1Ev
_ZN10ModStationC2Ev
_ZN10ModStationD0Ev
_ZN10ModStationD1Ev
_ZN10ModStationD2Ev
_ZN10NewsTicker10OnTouchEndEii
_ZN10NewsTicker11OnTouchMoveEii
_ZN10NewsTicker12OnTouchBeginEii
_ZN10NewsTicker13replaceTokensEN11AbyssEngine6StringE
_ZN10NewsTicker4drawEv
_ZN10NewsTicker6updateEi
_ZN10NewsTicker9getHeightEv
_ZN10NewsTickerC1Eiiiii
_ZN10NewsTickerC2Eiiiii
_ZN10NewsTickerD1Ev
_ZN10NewsTickerD2Ev
_ZN10PlayerJunk12outerCollideEfff
_ZN10PlayerJunk5resetEv
_ZN10PlayerJunk6renderEv
_ZN10PlayerJunk6updateEi
_ZN10PlayerJunk7collideEfff
_ZN10PlayerJunkC1EiP6PlayerP10AEGeometryfff
_ZN10PlayerJunkC2EiP6PlayerP10AEGeometryfff
_ZN10PlayerJunkD0Ev
_ZN10PlayerJunkD1Ev
_ZN10PlayerJunkD2Ev
_ZN10RepairBeam6renderEv
_ZN10RepairBeam6updateEiP5RadarP5LevelP3Hud
_ZN10RepairBeamC1Eii
_ZN10RepairBeamC2Eii
_ZN10RepairBeamD1Ev
_ZN10RepairBeamD2Ev
_ZN10SpacePoint4takeEv
_ZN10SpacePoint6isFreeEv
_ZN10SpacePoint8getIndexEv
_ZN10SpacePoint8giveFreeEv
_ZN10SpacePointC1EiRKN11AbyssEngine6AEMath6VectorES4_i
_ZN10SpacePointC2EiRKN11AbyssEngine6AEMath6VectorES4_i
_ZN10SpacePointD1Ev
_ZN10SpacePointD2Ev
_ZN10StarSystem10getPlanetsEv
_ZN10StarSystem15renderSunStreakEv
_ZN10StarSystem15updateSupernovaEi
_ZN10StarSystem16getPlanetTargetsEv
_ZN10StarSystem16orbitPlanetIndexE
_ZN10StarSystem17getLightDirectionEv
_ZN10StarSystem17getStationIndicesEv
_ZN10StarSystem20getPlanetScaleFactorEv
_ZN10StarSystem20switchPlanetForIntroEv
_ZN10StarSystem26switchSunForSupernovaIntroEv
_ZN10StarSystem28scaleSunDuringSupernovaIntroEi
_ZN10StarSystem29switchSunForSupernovaReversalEv
_ZN10StarSystem30switchSunForSupernovaExpansionEv
_ZN10StarSystem6renderEv
_ZN10StarSystem6rotateEiii
_ZN10StarSystem8render2DEv
_ZN10StarSystem9initLightEv
_ZN10StarSystemC1Ei
_ZN10StarSystemC2Ei
_ZN10StarSystemD1Ev
_ZN10StarSystemD2Ev
_ZN11AMeshMerger6renderEv
_ZN11AMeshMergerD1Ev
_ZN11AMeshMergerD2Ev
_ZN11AbstractGun11isRocketGunEv
_ZN11AbstractGun12isAutoTurretEv
_ZN11AbstractGun9isBombGunEv
_ZN11AbstractGun9isMineGunEv
_ZN11AbyssEngine10BlurShader11SetInActiveEv
_ZN11AbyssEngine10BlurShader11ShaderIndexE
_ZN11AbyssEngine10BlurShader12RenderEffectEPNS_12FBOContainerEPNS_6EngineEfNS_6AEMath6VectorE
_ZN11AbyssEngine10BlurShader12RenderEffectEPNS_12FBOContainerERS2_PNS_6EngineEfNS_6AEMath6VectorE
_ZN11AbyssEngine10BlurShader14UpdateMeshDataEPNS_4MeshEPNS_6EngineE
_ZN11AbyssEngine10BlurShader4InitEPNS_6EngineE
_ZN11AbyssEngine10BlurShaderC1Ev
_ZN11AbyssEngine10BlurShaderC2Ev
_ZN11AbyssEngine10BlurShaderD0Ev
_ZN11AbyssEngine10BlurShaderD1Ev
_ZN11AbyssEngine10BlurShaderD2Ev
_ZN11AbyssEngine10BumpShader11SetInActiveEv
_ZN11AbyssEngine10BumpShader11ShaderIndexE
_ZN11AbyssEngine10BumpShader14UpdateMeshDataEPNS_4MeshEPNS_6EngineE
_ZN11AbyssEngine10BumpShader4InitEPNS_6EngineE
_ZN11AbyssEngine10BumpShaderC1Ev
_ZN11AbyssEngine10BumpShaderC2Ev
_ZN11AbyssEngine10BumpShaderD0Ev
_ZN11AbyssEngine10GlowShader11SetInActiveEv
_ZN11AbyssEngine10GlowShader11ShaderIndexE
_ZN11AbyssEngine10GlowShader14UpdateMeshDataEPNS_4MeshEPNS_6EngineE
_ZN11AbyssEngine10GlowShader4InitEPNS_6EngineE
_ZN11AbyssEngine10GlowShaderC1Ev
_ZN11AbyssEngine10GlowShaderC2Ev
_ZN11AbyssEngine10GlowShaderD0Ev
_ZN11AbyssEngine10MaskShader11SetInActiveEv
_ZN11AbyssEngine10MaskShader11ShaderIndexE
_ZN11AbyssEngine10MaskShader14UpdateMeshDataEPNS_4MeshEPNS_6EngineE
_ZN11AbyssEngine10MaskShader4InitEPNS_6EngineE
_ZN11AbyssEngine10MaskShaderC1Ev
_ZN11AbyssEngine10MaskShaderC2Ev
_ZN11AbyssEngine10MaskShaderD0Ev
_ZN11AbyssEngine10MeshCreateEPNS_6EngineEttaPPNS_4MeshE
_ZN11AbyssEngine10Quaternion10NormalizedEv
_ZN11AbyssEngine10Quaternion3DotERKS0_S2_
_ZN11AbyssEngine10Quaternion3SetENS_6AEMath6VectorE
_ZN11AbyssEngine10Quaternion3SetERKNS_6AEMath6MatrixE
_ZN11AbyssEngine10Quaternion3SetEfff
_ZN11AbyssEngine10Quaternion4LerpEPKfS2_f
_ZN11AbyssEngine10Quaternion4LerpERKS0_S2_f
_ZN11AbyssEngine10Quaternion7ConvertERNS_6AEMath6MatrixE
_ZN11AbyssEngine10QuaternionC1ENS_6AEMath6VectorE
_ZN11AbyssEngine10QuaternionC1EPS0_
_ZN11AbyssEngine10QuaternionC1ERKNS_6AEMath6MatrixE
_ZN11AbyssEngine10QuaternionC1Effff
_ZN11AbyssEngine10QuaternionC1Ev
_ZN11AbyssEngine10QuaternionC2ENS_6AEMath6VectorE
_ZN11AbyssEngine10QuaternionC2EPS0_
_ZN11AbyssEngine10QuaternionC2ERKNS_6AEMath6MatrixE
_ZN11AbyssEngine10QuaternionC2Effff
_ZN11AbyssEngine10QuaternionC2Ev
_ZN11AbyssEngine10QuaternionD1Ev
_ZN11AbyssEngine10QuaternionD2Ev
_ZN11AbyssEngine10QuaternioncvPfEv
_ZN11AbyssEngine10QuaternionixEi
_ZN11AbyssEngine10currentFpsE
_ZN11AbyssEngine10debugTouchE
_ZN11AbyssEngine10fpsCounterE
_ZN11AbyssEngine11BloomShader11SetInActiveEv
_ZN11AbyssEngine11BloomShader11ShaderIndexE
_ZN11AbyssEngine11BloomShader12InternalInitEPNS_6EngineE
_ZN11AbyssEngine11BloomShader12RenderEffectEPNS_12FBOContainerEPNS_6EngineE
_ZN11AbyssEngine11BloomShader12RenderEffectEPNS_12FBOContainerERS2_PNS_6EngineE
_ZN11AbyssEngine11BloomShader14UpdateMeshDataEPNS_4MeshEPNS_6EngineE
_ZN11AbyssEngine11BloomShader4InitEPNS_6EngineE
_ZN11AbyssEngine11BloomShaderC1Ev
_ZN11AbyssEngine11BloomShaderC2Ev
_ZN11AbyssEngine11BloomShaderD0Ev
_ZN11AbyssEngine11BloomShaderD1Ev
_ZN11AbyssEngine11BloomShaderD2Ev
_ZN11AbyssEngine11BumpMapping11SetInActiveEv
_ZN11AbyssEngine11BumpMapping11ShaderIndexE
_ZN11AbyssEngine11BumpMapping14UpdateMeshDataEPNS_4MeshEPNS_6EngineE
_ZN11AbyssEngine11BumpMapping4InitEPNS_6EngineE
_ZN11AbyssEngine11BumpMappingC1Ev
_ZN11AbyssEngine11BumpMappingC2Ev
_ZN11AbyssEngine11BumpMappingD0Ev
_ZN11AbyssEngine11ColorMixAdd11SetInActiveEv
_ZN11AbyssEngine11ColorMixAdd11ShaderIndexE
_ZN11AbyssEngine11ColorMixAdd14UpdateMeshDataEPNS_4MeshEPNS_6EngineE
_ZN11AbyssEngine11ColorMixAdd4InitEPNS_6EngineE
_ZN11AbyssEngine11ColorMixAddC1Ev
_ZN11AbyssEngine11ColorMixAddC2Ev
_ZN11AbyssEngine11ColorMixAddD0Ev
_ZN11AbyssEngine11CubeMapping11SetInActiveEv
_ZN11AbyssEngine11CubeMapping11ShaderIndexE
_ZN11AbyssEngine11CubeMapping14UpdateMeshDataEPNS_4MeshEPNS_6EngineE
_ZN11AbyssEngine11CubeMapping4InitEPNS_6EngineE
_ZN11AbyssEngine11CubeMappingC1Ev
_ZN11AbyssEngine11CubeMappingC2Ev
_ZN11AbyssEngine11CubeMappingD0Ev
_ZN11AbyssEngine11CurveCreateEPPvtPPNS_5CurveE
_ZN11AbyssEngine11GreenShader11SetInActiveEv
_ZN11AbyssEngine11GreenShader11ShaderIndexE
_ZN11AbyssEngine11GreenShader14UpdateMeshDataEPNS_4MeshEPNS_6EngineE
_ZN11AbyssEngine11GreenShader4InitEPNS_6EngineE
_ZN11AbyssEngine11GreenShaderC1Ev
_ZN11AbyssEngine11GreenShaderC2Ev
_ZN11AbyssEngine11GreenShaderD0Ev
_ZN11AbyssEngine11MeshReleaseEPNS_6EngineEPPNS_4MeshE
_ZN11AbyssEngine11NoTexShader11SetInActiveEv
_ZN11AbyssEngine11NoTexShader11ShaderIndexE
_ZN11AbyssEngine11NoTexShader14UpdateMeshDataEPNS_4MeshEPNS_6EngineE
_ZN11AbyssEngine11NoTexShader4InitEPNS_6EngineE
_ZN11AbyssEngine11NoTexShaderC1Ev
_ZN11AbyssEngine11NoTexShaderC2Ev
_ZN11AbyssEngine11NoTexShaderD0Ev
_ZN11AbyssEngine11PaintCanvas10ClearDepthEv
_ZN11AbyssEngine11PaintCanvas10DrawStringEjPKtiib
_ZN11AbyssEngine11PaintCanvas10DrawStringEjRKNS_6StringEiib
_ZN11AbyssEngine11PaintCanvas10EnableClipEiiii
_ZN11AbyssEngine11PaintCanvas10FontCreateEtRjb
_ZN11AbyssEngine11PaintCanvas10InitializeEb
_ZN11AbyssEngine11PaintCanvas10MeshCreateEtRjb
_ZN11AbyssEngine11PaintCanvas10MeshCreateEttaRj
_ZN11AbyssEngine11PaintCanvas10MeshCreateEttatRj
_ZN11AbyssEngine11PaintCanvas10SetTextureEjj
_ZN11AbyssEngine11PaintCanvas10SwapBufferEv
_ZN11AbyssEngine11PaintCanvas11AddResourceEPNS_8ResourceE
_ZN11AbyssEngine11PaintCanvas11CheckStringEjRKNS_6StringE
_ZN11AbyssEngine11PaintCanvas11ClearBufferEj
_ZN11AbyssEngine11PaintCanvas11DisableClipEv
_ZN11AbyssEngine11PaintCanvas11DrawImage2DEjii
_ZN11AbyssEngine11PaintCanvas11DrawImage2DEjiih
_ZN11AbyssEngine11PaintCanvas11DrawImage2DEjiihh
_ZN11AbyssEngine11PaintCanvas11DrawImage2DEjiiiihhh
_ZN11AbyssEngine11PaintCanvas12CameraCreateERj
_ZN11AbyssEngine11PaintCanvas12DrawRegion2DEjfiiiiff
_ZN11AbyssEngine11PaintCanvas12DrawRegion2DEjiiiifiiii
_ZN11AbyssEngine11PaintCanvas12FindResourceEt
_ZN11AbyssEngine11PaintCanvas12GetGravValueEv
_ZN11AbyssEngine11PaintCanvas12GetLineArrayEjRKNS_6StringEiP5ArrayIPS1_E
_ZN11AbyssEngine11PaintCanvas12GetTextWidthEjRKNS_6StringE
_ZN11AbyssEngine11PaintCanvas12GetTextWidthEjRKNS_6StringEjj
_ZN11AbyssEngine11PaintCanvas12HasVibrationEv
_ZN11AbyssEngine11PaintCanvas12MeshSetColorEjtffff
_ZN11AbyssEngine11PaintCanvas12MeshSetColorEjtj
_ZN11AbyssEngine11PaintCanvas12MeshSetPointEjtfff
_ZN11AbyssEngine11PaintCanvas12SetBlendModeENS_9BlendModeE
_ZN11AbyssEngine11PaintCanvas12StopDraw2FBOEv
_ZN11AbyssEngine11PaintCanvas13DrawRectangleEiiii
_ZN11AbyssEngine11PaintCanvas13DrawTextLinesEjP5ArrayIPNS_6StringEEii
_ZN11AbyssEngine11PaintCanvas13DrawTextLinesEjP5ArrayIPNS_6StringEEiib
_ZN11AbyssEngine11PaintCanvas13DrawTextLinesEjP5ArrayIPNS_6StringEEiijb
_ZN11AbyssEngine11PaintCanvas13DrawTransformEPNS_9TransformERKNS_6AEMath6MatrixERS4_
_ZN11AbyssEngine11PaintCanvas13DrawTransformEjPKNS_6AEMath6MatrixE
_ZN11AbyssEngine11PaintCanvas13FillRectangleEiiii
_ZN11AbyssEngine11PaintCanvas13GetAccelValueEv
_ZN11AbyssEngine11PaintCanvas13GetTextHeightEj
_ZN11AbyssEngine11PaintCanvas13Image2DCreateEtRj
_ZN11AbyssEngine11PaintCanvas13MeshSet2DMaskEjii
_ZN11AbyssEngine11PaintCanvas13MeshSetNormalEjtRKNS_6AEMath6VectorE
_ZN11AbyssEngine11PaintCanvas13SetMatForGlowEPNS_8MaterialE
_ZN11AbyssEngine11PaintCanvas13SetShaderModeEi
_ZN11AbyssEngine11PaintCanvas13StartDraw2FBOEv
_ZN11AbyssEngine11PaintCanvas13TextureCreateEtPFvPNS_5ImageEPvES3_Rjb
_ZN11AbyssEngine11PaintCanvas13TextureCreateEtRjb
_ZN11AbyssEngine11PaintCanvas13WarmUpTextureEv
_ZN11AbyssEngine11PaintCanvas14CameraGetLocalEj
_ZN11AbyssEngine11PaintCanvas14CameraSetLocalEjRKNS_6AEMath6MatrixE
_ZN11AbyssEngine11PaintCanvas14FontGetSpacingEj
_ZN11AbyssEngine11PaintCanvas14FontGetYOffsetEj
_ZN11AbyssEngine11PaintCanvas14FontSetSpacingEjs
_ZN11AbyssEngine11PaintCanvas14FontSetYOffsetEjs
_ZN11AbyssEngine11PaintCanvas14MaterialChangeEjNS_9BlendModeEj
_ZN11AbyssEngine11PaintCanvas14MaterialCreateERjNS_9BlendModeEjt
_ZN11AbyssEngine11PaintCanvas14MaterialCreateEtRj
_ZN11AbyssEngine11PaintCanvas14MeshGetPointerEj
_ZN11AbyssEngine11PaintCanvas14MeshSetTangentEjtRKNS_6AEMath6VectorE
_ZN11AbyssEngine11PaintCanvas14ReloadTexturesEv
_ZN11AbyssEngine11PaintCanvas14ResourceLoadedEjNS_12ResourceTypeE
_ZN11AbyssEngine11PaintCanvas14RestoreImage2DEPNS_7Image2DE
_ZN11AbyssEngine11PaintCanvas15DrawStringColorEjRKNS_6StringEiib
_ZN11AbyssEngine11PaintCanvas15FogSetParameterENS_7FogModeEfffj
_ZN11AbyssEngine11PaintCanvas15GetImage2DWidthEj
_ZN11AbyssEngine11PaintCanvas15MeshClear2DMaskEv
_ZN11AbyssEngine11PaintCanvas15MeshGetTriCountEPNS_4MeshE
_ZN11AbyssEngine11PaintCanvas15MeshSetTriangleEjtttt
_ZN11AbyssEngine11PaintCanvas15ResetPersMatrixEv
_ZN11AbyssEngine11PaintCanvas15SetResourceListEPKPNS_8ResourceEj
_ZN11AbyssEngine11PaintCanvas15TransformCreateERj
_ZN11AbyssEngine11PaintCanvas15TransformCreateEtRj
_ZN11AbyssEngine11PaintCanvas16CameraGetCurrentEv
_ZN11AbyssEngine11PaintCanvas16CameraSetCurrentEj
_ZN11AbyssEngine11PaintCanvas16DrawSpriteSystemEj
_ZN11AbyssEngine11PaintCanvas16DrawSpriteSystemEjNS_6AEMath6MatrixE
_ZN11AbyssEngine11PaintCanvas16DrawSpriteSystemEjNS_6AEMath6MatrixES2_
_ZN11AbyssEngine11PaintCanvas16GetImage2DHeightEj
_ZN11AbyssEngine11PaintCanvas16GetReverseStringENS_6StringE
_ZN11AbyssEngine11PaintCanvas16GetReverseStringENS_6StringEb
_ZN11AbyssEngine11PaintCanvas16MeshConvertToVBOEj
_ZN11AbyssEngine11PaintCanvas16MeshSetBiTangentEjtRKNS_6AEMath6VectorE
_ZN11AbyssEngine11PaintCanvas16TransformAddMeshEjtb
_ZN11AbyssEngine11PaintCanvas17ChangeCubeTextureEj
_ZN11AbyssEngine11PaintCanvas17GetMeshResourceIdERNS_6StringE
_ZN11AbyssEngine11PaintCanvas17GetMeshResourceIdERNS_6StringEt
_ZN11AbyssEngine11PaintCanvas17GetScreenPositionERKNS_6AEMath6MatrixERNS1_6VectorE
_ZN11AbyssEngine11PaintCanvas17GetScreenPositionERKNS_6AEMath6VectorERS2_
_ZN11AbyssEngine11PaintCanvas17GetScreenPositionERNS_6AEMath6MatrixERKNS1_6VectorERS4_
_ZN11AbyssEngine11PaintCanvas17MeshCloneMaterialEjRj
_ZN11AbyssEngine11PaintCanvas17SpriteSystemSetUvEjtffff
_ZN11AbyssEngine11PaintCanvas17TransformAddChildEjj
_ZN11AbyssEngine11PaintCanvas17TransformGetLocalEj
_ZN11AbyssEngine11PaintCanvas17TransformSetColorEjj
_ZN11AbyssEngine11PaintCanvas17TransformSetLocalEjRKNS_6AEMath6MatrixE
_ZN11AbyssEngine11PaintCanvas18MeshChangeMaterialEjt
_ZN11AbyssEngine11PaintCanvas18MeshTranslatePointEjtfff
_ZN11AbyssEngine11PaintCanvas18SetGameOrientationENS_13LandscapeModeE
_ZN11AbyssEngine11PaintCanvas18SetProjOrthoMatrixEv
_ZN11AbyssEngine11PaintCanvas18SetWorldViewMatrixERKNS_6AEMath6MatrixE
_ZN11AbyssEngine11PaintCanvas18SpriteSystemCreateEtbRj
_ZN11AbyssEngine11PaintCanvas18SpriteSystemCreateEtbtRj
_ZN11AbyssEngine11PaintCanvas18TransformAddMeshIdEjj
_ZN11AbyssEngine11PaintCanvas19CheckNUseRefractFBOEb
_ZN11AbyssEngine11PaintCanvas19MaterialGetMaterialEj
_ZN11AbyssEngine11PaintCanvas19ReleaseAllResourcesEv
_ZN11AbyssEngine11PaintCanvas19SpriteSystemAddSizeEjts
_ZN11AbyssEngine11PaintCanvas19SpriteSystemSetRGBAEjtffff
_ZN11AbyssEngine11PaintCanvas19SpriteSystemSetSizeEjts
_ZN11AbyssEngine11PaintCanvas19TextureCreateGlobalENS_6StringEj
_ZN11AbyssEngine11PaintCanvas19TransformRemoveMeshEjt
_ZN11AbyssEngine11PaintCanvas20CameraSetPerspectiveEjff
_ZN11AbyssEngine11PaintCanvas20CameraSetPerspectiveEjfff
_ZN11AbyssEngine11PaintCanvas20GetTextureResourceIdERNS_6StringE
_ZN11AbyssEngine11PaintCanvas20MeshSetTriangleCountEjt
_ZN11AbyssEngine11PaintCanvas20RemoveAllMatsForGlowEv
_ZN11AbyssEngine11PaintCanvas20SpriteSystemSetAllUvEjffff
_ZN11AbyssEngine11PaintCanvas20TransformGetTriCountEPNS_9TransformE
_ZN11AbyssEngine11PaintCanvas20TransformGetTriCountEj
_ZN11AbyssEngine11PaintCanvas20TransformRemoveChildEjj
_ZN11AbyssEngine11PaintCanvas21SetProjectionMatrix3dEfff
_ZN11AbyssEngine11PaintCanvas21TransformGetTransformEj
_ZN11AbyssEngine11PaintCanvas21TransformRemoveMeshIdEjj
_ZN11AbyssEngine11PaintCanvas22DrawFrameBufferTextureEiiiiii
_ZN11AbyssEngine11PaintCanvas22SpriteSystemSetAllSizeEjs
_ZN11AbyssEngine11PaintCanvas23CameraGetCurrentFactor1Ev
_ZN11AbyssEngine11PaintCanvas23SpriteSystemAddPositionEjtfff
_ZN11AbyssEngine11PaintCanvas23SpriteSystemGetPositionEjtRKNS_6AEMath6MatrixERNS1_6VectorE
_ZN11AbyssEngine11PaintCanvas23SpriteSystemGetPositionEjtRNS_6AEMath6VectorE
_ZN11AbyssEngine11PaintCanvas23SpriteSystemSetPositionEjtfff
_ZN11AbyssEngine11PaintCanvas24MeshChangeMaterialInternEPNS_4MeshEPNS_8MaterialE
_ZN11AbyssEngine11PaintCanvas24MeshChangeMaterialInternEPNS_9TransformEPNS_8MaterialE
_ZN11AbyssEngine11PaintCanvas25MeshChangeShaderAnimValueEPNS_4MeshEfj
_ZN11AbyssEngine11PaintCanvas25MeshChangeShaderAnimValueEPNS_9TransformEfj
_ZN11AbyssEngine11PaintCanvas26CameraIsPointinViewFrustumERKNS_6AEMath6VectorE
_ZN11AbyssEngine11PaintCanvas26MeshChangeResourceMaterialEjt
_ZN11AbyssEngine11PaintCanvas26MeshResourceChangeMaterialEtt
_ZN11AbyssEngine11PaintCanvas27CameraIsSphereinViewFrustumERKNS_6AEMath6VectorEf
_ZN11AbyssEngine11PaintCanvas27ReleaseSpriteSystemResourceEj
_ZN11AbyssEngine11PaintCanvas29MaterialResourceChangeTextureEjji
_ZN11AbyssEngine11PaintCanvas29MeshResourceChangeAllMaterialEtt
_ZN11AbyssEngine11PaintCanvas33TransformGet2DPickedTextureRegionEPNS_9TransformEiiii
_ZN11AbyssEngine11PaintCanvas33TransformGet2DPickedTextureRegionEjiiii
_ZN11AbyssEngine11PaintCanvas5End2dEv
_ZN11AbyssEngine11PaintCanvas5End3dEv
_ZN11AbyssEngine11PaintCanvas5EndBGEv
_ZN11AbyssEngine11PaintCanvas6ResumeEv
_ZN11AbyssEngine11PaintCanvas7Begin2dEv
_ZN11AbyssEngine11PaintCanvas7Begin3dEv
_ZN11AbyssEngine11PaintCanvas7BeginBGEv
_ZN11AbyssEngine11PaintCanvas7GetLineEjNS_6StringEiPS1_
_ZN11AbyssEngine11PaintCanvas7SuspendEv
_ZN11AbyssEngine11PaintCanvas7VibrateEt
_ZN11AbyssEngine11PaintCanvas8DrawLineEiiii
_ZN11AbyssEngine11PaintCanvas8DrawMeshEPNS_4MeshERNS_6AEMath6MatrixES5_jS5_
_ZN11AbyssEngine11PaintCanvas8DrawMeshEj
_ZN11AbyssEngine11PaintCanvas8GetColorEv
_ZN11AbyssEngine11PaintCanvas8GetWidthEv
_ZN11AbyssEngine11PaintCanvas8SetColorEhhhh
_ZN11AbyssEngine11PaintCanvas8SetColorEj
_ZN11AbyssEngine11PaintCanvas9FogEnableEbNS_7FogModeE
_ZN11AbyssEngine11PaintCanvas9GetHeightEv
_ZN11AbyssEngine11PaintCanvas9MeshSetUvEjtff
_ZN11AbyssEngine11PaintCanvasC1EPNS_6EngineE
_ZN11AbyssEngine11PaintCanvasC2EPNS_6EngineE
_ZN11AbyssEngine11PaintCanvasD1Ev
_ZN11AbyssEngine11PaintCanvasD2Ev
_ZN11AbyssEngine11PulseShader11SetInActiveEv
_ZN11AbyssEngine11PulseShader11ShaderIndexE
_ZN11AbyssEngine11PulseShader14UpdateMeshDataEPNS_4MeshEPNS_6EngineE
_ZN11AbyssEngine11PulseShader4InitEPNS_6EngineE
_ZN11AbyssEngine11PulseShaderC1Ev
_ZN11AbyssEngine11PulseShaderC2Ev
_ZN11AbyssEngine11PulseShaderD0Ev
_ZN11AbyssEngine11SwapCounterE
_ZN11AbyssEngine11firstRenderE
_ZN11AbyssEngine11loadTextureE
_ZN11AbyssEngine12BumpShaderV211SetInActiveEv
_ZN11AbyssEngine12BumpShaderV211ShaderIndexE
_ZN11AbyssEngine12BumpShaderV214UpdateMeshDataEPNS_4MeshEPNS_6EngineE
_ZN11AbyssEngine12BumpShaderV24InitEPNS_6EngineE
_ZN11AbyssEngine12BumpShaderV2C1Ev
_ZN11AbyssEngine12BumpShaderV2C2Ev
_ZN11AbyssEngine12BumpShaderV2D0Ev
_ZN11AbyssEngine12BumpShaderV311SetInActiveEv
_ZN11AbyssEngine12BumpShaderV311ShaderIndexE
_ZN11AbyssEngine12BumpShaderV314UpdateMeshDataEPNS_4MeshEPNS_6EngineE
_ZN11AbyssEngine12BumpShaderV34InitEPNS_6EngineE
_ZN11AbyssEngine12BumpShaderV3C1Ev
_ZN11AbyssEngine12BumpShaderV3C2Ev
_ZN11AbyssEngine12BumpShaderV3D0Ev
_ZN11AbyssEngine12BumpShaderV411SetInActiveEv
_ZN11AbyssEngine12BumpShaderV411ShaderIndexE
_ZN11AbyssEngine12BumpShaderV414UpdateMeshDataEPNS_4MeshEPNS_6EngineE
_ZN11AbyssEngine12BumpShaderV44InitEPNS_6EngineE
_ZN11AbyssEngine12BumpShaderV4C1Ev
_ZN11AbyssEngine12BumpShaderV4C2Ev
_ZN11AbyssEngine12BumpShaderV4D0Ev
_ZN11AbyssEngine12CheatHandler12AddCheatCodeERKNS_6StringEi
_ZN11AbyssEngine12CheatHandler12SetCheatFuncEPFviPvES1_
_ZN11AbyssEngine12CheatHandler6UpdateEt
_ZN11AbyssEngine12CheatHandlerC1EPNS_7KeyCodeE
_ZN11AbyssEngine12CheatHandlerC2EPNS_7KeyCodeE
_ZN11AbyssEngine12CheatHandlerD1Ev
_ZN11AbyssEngine12CheatHandlerD2Ev
_ZN11AbyssEngine12ConfigReader10GetNewLineEv
_ZN11AbyssEngine12ConfigReader25RegisterTokenReadFunctionENS_6StringEPFvPS0_PvES3_
_ZN11AbyssEngine12ConfigReader9ParseFileENS_6StringE
_ZN11AbyssEngine12ConfigReaderC1EPNS_6EngineE
_ZN11AbyssEngine12ConfigReaderC2EPNS_6EngineE
_ZN11AbyssEngine12ConfigReaderD1Ev
_ZN11AbyssEngine12ConfigReaderD2Ev
_ZN11AbyssEngine12CurveReleaseEPPNS_5CurveE
_ZN11AbyssEngine12EnergyShield11SetInActiveEv
_ZN11AbyssEngine12EnergyShield11ShaderIndexE
_ZN11AbyssEngine12EnergyShield14UpdateMeshDataEPNS_4MeshEPNS_6EngineE
_ZN11AbyssEngine12EnergyShield4InitEPNS_6EngineE
_ZN11AbyssEngine12EnergyShieldC1Ev
_ZN11AbyssEngine12EnergyShieldC2Ev
_ZN11AbyssEngine12EnergyShieldD0Ev
_ZN11AbyssEngine12FBOContainer10EndCaptureEv
_ZN11AbyssEngine12FBOContainer12BeginCaptureEv
_ZN11AbyssEngine12FBOContainer6CreateEiibb
_ZN11AbyssEngine12FBOContainer7ReleaseEv
_ZN11AbyssEngine12FBOContainer8ActivateEv
_ZN11AbyssEngine12FBOContainerC1EPNS_6EngineENS_6StringE
_ZN11AbyssEngine12FBOContainerC2EPNS_6EngineENS_6StringE
_ZN11AbyssEngine12FBOContainerD1Ev
_ZN11AbyssEngine12FBOContainerD2Ev
_ZN11AbyssEngine12GlowPPShader11SetInActiveEv
_ZN11AbyssEngine12GlowPPShader11ShaderIndexE
_ZN11AbyssEngine12GlowPPShader12InternalInitEPNS_6EngineE
_ZN11AbyssEngine12GlowPPShader12RenderEffectEPNS_12FBOContainerEPNS_6EngineE
_ZN11AbyssEngine12GlowPPShader12RenderEffectEPNS_12FBOContainerERS2_PNS_6EngineE
_ZN11AbyssEngine12GlowPPShader14UpdateMeshDataEPNS_4MeshEPNS_6EngineE
_ZN11AbyssEngine12GlowPPShader4InitEPNS_6EngineE
_ZN11AbyssEngine12GlowPPShaderC1Ev
_ZN11AbyssEngine12GlowPPShaderC2Ev
_ZN11AbyssEngine12GlowPPShaderD0Ev
_ZN11AbyssEngine12GlowPPShaderD1Ev
_ZN11AbyssEngine12GlowPPShaderD2Ev
_ZN11AbyssEngine12ImageReleaseEPPNS_5ImageE
_ZN11AbyssEngine12MaterialDrawEPNS_11PaintCanvasEPNS_6EngineEPNS_8MaterialEb
_ZN11AbyssEngine12MeshReadDataEPNS_6EngineERKjjPPNS_4MeshEPNS_8MaterialE
_ZN11AbyssEngine12PostBWShader11SetInActiveEv
_ZN11AbyssEngine12PostBWShader11ShaderIndexE
_ZN11AbyssEngine12PostBWShader12RenderEffectEPNS_12FBOContainerEPNS_6EngineE
_ZN11AbyssEngine12PostBWShader14UpdateMeshDataEPNS_4MeshEPNS_6EngineE
_ZN11AbyssEngine12PostBWShader4InitEPNS_6EngineE
_ZN11AbyssEngine12PostBWShaderC1Ev
_ZN11AbyssEngine12PostBWShaderC2Ev
_ZN11AbyssEngine12PostBWShaderD0Ev
_ZN11AbyssEngine12PostBWShaderD1Ev
_ZN11AbyssEngine12PostBWShaderD2Ev
_ZN11AbyssEngine12ResourceMeshC2EPKctb
_ZN11AbyssEngine12ResourceMeshD2Ev
_ZN11AbyssEngine12SimpleShader11SetInActiveEv
_ZN11AbyssEngine12SimpleShader11ShaderIndexE
_ZN11AbyssEngine12SimpleShader14UpdateMeshDataEPNS_4MeshEPNS_6EngineE
_ZN11AbyssEngine12SimpleShader4InitEPNS_6EngineE
_ZN11AbyssEngine12SimpleShaderC1Ev
_ZN11AbyssEngine12SimpleShaderC2Ev
_ZN11AbyssEngine12SimpleShaderD0Ev
_ZN11AbyssEngine13CurveGetValueEyPNS_5CurveE
_ZN11AbyssEngine13DrawFBOShader11SetInActiveEv
_ZN11AbyssEngine13DrawFBOShader11ShaderIndexE
_ZN11AbyssEngine13DrawFBOShader12RenderEffectEPNS_12FBOContainerEPNS_6EngineE
_ZN11AbyssEngine13DrawFBOShader14UpdateMeshDataEPNS_4MeshEPNS_6EngineE
_ZN11AbyssEngine13DrawFBOShader4InitEPNS_6EngineE
_ZN11AbyssEngine13DrawFBOShaderC1Ev
_ZN11AbyssEngine13DrawFBOShaderC2Ev
_ZN11AbyssEngine13DrawFBOShaderD0Ev
_ZN11AbyssEngine13DrawFBOShaderD1Ev
_ZN11AbyssEngine13DrawFBOShaderD2Ev
_ZN11AbyssEngine13GenericShader11SetInActiveEv
_ZN11AbyssEngine13GenericShader11ShaderIndexE
_ZN11AbyssEngine13GenericShader14UpdateMeshDataEPNS_4MeshEPNS_6EngineE
_ZN11AbyssEngine13GenericShader4InitEPNS_6EngineE
_ZN11AbyssEngine13GenericShaderC1Ev
_ZN11AbyssEngine13GenericShaderC2Ev
_ZN11AbyssEngine13GenericShaderD0Ev
_ZN11AbyssEngine13MeshIntersectEffPNS_4MeshE
_ZN11AbyssEngine13SandboxShader11SetInActiveEv
_ZN11AbyssEngine13SandboxShader11ShaderIndexE
_ZN11AbyssEngine13SandboxShader14UpdateMeshDataEPNS_4MeshEPNS_6EngineE
_ZN11AbyssEngine13SandboxShader4InitEPNS_6EngineE
_ZN11AbyssEngine13SandboxShaderC1Ev
_ZN11AbyssEngine13SandboxShaderC2Ev
_ZN11AbyssEngine13SandboxShaderD0Ev
_ZN11AbyssEngine13SetFXMaterialENS_9BlendModeE
_ZN11AbyssEngine13TexOnlyShader11SetInActiveEv
_ZN11AbyssEngine13TexOnlyShader11ShaderIndexE
_ZN11AbyssEngine13TexOnlyShader14UpdateMeshDataEPNS_4MeshEPNS_6EngineE
_ZN11AbyssEngine13TexOnlyShader4InitEPNS_6EngineE
_ZN11AbyssEngine13TexOnlyShaderC1Ev
_ZN11AbyssEngine13TexOnlyShaderC2Ev
_ZN11AbyssEngine13TexOnlyShaderD0Ev
_ZN11AbyssEngine13TextureShader11SetInActiveEv
_ZN11AbyssEngine13TextureShader11ShaderIndexE
_ZN11AbyssEngine13TextureShader14UpdateMeshDataEPNS_4MeshEPNS_6EngineE
_ZN11AbyssEngine13TextureShader23ConnectShaderComponentsEji
_ZN11AbyssEngine13TextureShader4InitEPNS_6EngineE
_ZN11AbyssEngine13TextureShader9UseShaderEb
_ZN11AbyssEngine13TextureShaderC1Ev
_ZN11AbyssEngine13TextureShaderC2Ev
_ZN11AbyssEngine13TextureShaderD0Ev
_ZN11AbyssEngine13getAppVersionEv
_ZN11AbyssEngine14GenericShader111SetInActiveEv
_ZN11AbyssEngine14GenericShader111ShaderIndexE
_ZN11AbyssEngine14GenericShader114UpdateMeshDataEPNS_4MeshEPNS_6EngineE
_ZN11AbyssEngine14GenericShader14InitEPNS_6EngineE
_ZN11AbyssEngine14GenericShader1C1Ev
_ZN11AbyssEngine14GenericShader1C2Ev
_ZN11AbyssEngine14GenericShader1D0Ev
_ZN11AbyssEngine14GenericShader211SetInActiveEv
_ZN11AbyssEngine14GenericShader211ShaderIndexE
_ZN11AbyssEngine14GenericShader214UpdateMeshDataEPNS_4MeshEPNS_6EngineE
_ZN11AbyssEngine14GenericShader24InitEPNS_6EngineE
_ZN11AbyssEngine14GenericShader2C1Ev
_ZN11AbyssEngine14GenericShader2C2Ev
_ZN11AbyssEngine14GenericShader2D0Ev
_ZN11AbyssEngine14Image2DReleaseEPNS_6EngineEPPNS_7Image2DE
_ZN11AbyssEngine14PostEffectFlagE
_ZN11AbyssEngine14currentLODBiasE
_ZN11AbyssEngine15BumpShaderCloak11SetInActiveEv
_ZN11AbyssEngine15BumpShaderCloak11ShaderIndexE
_ZN11AbyssEngine15BumpShaderCloak14UpdateMeshDataEPNS_4MeshEPNS_6EngineE
_ZN11AbyssEngine15BumpShaderCloak4InitEPNS_6EngineE
_ZN11AbyssEngine15BumpShaderCloakC1Ev
_ZN11AbyssEngine15BumpShaderCloakC2Ev
_ZN11AbyssEngine15BumpShaderCloakD0Ev
_ZN11AbyssEngine15CubeMapSetIndexE
_ZN11AbyssEngine15EaseInOutMatrix11GetMaxValueEv
_ZN11AbyssEngine15EaseInOutMatrix11GetMinValueEv
_ZN11AbyssEngine15EaseInOutMatrix11SetDurationEi
_ZN11AbyssEngine15EaseInOutMatrix13SetToMaxValueEv
_ZN11AbyssEngine15EaseInOutMatrix13SetToMinValueEv
_ZN11AbyssEngine15EaseInOutMatrix18UpdateCurrentValueEv
_ZN11AbyssEngine15EaseInOutMatrix6RunOutEf
_ZN11AbyssEngine15EaseInOutMatrix8DecreaseEf
_ZN11AbyssEngine15EaseInOutMatrix8GetValueEv
_ZN11AbyssEngine15EaseInOutMatrix8IncreaseEf
_ZN11AbyssEngine15EaseInOutMatrix8SetRangeENS_6AEMath6MatrixES2_
_ZN11AbyssEngine15EaseInOutMatrixC1ENS_6AEMath6MatrixES2_i
_ZN11AbyssEngine15EaseInOutMatrixC1Ev
_ZN11AbyssEngine15EaseInOutMatrixC2ENS_6AEMath6MatrixES2_i
_ZN11AbyssEngine15EaseInOutMatrixC2Ev
_ZN11AbyssEngine15EaseInOutMatrixD2Ev
_ZN11AbyssEngine15ResourceTextureC2EPKcf
_ZN11AbyssEngine15ResourceTextureC2ERKNS_6StringEf
_ZN11AbyssEngine15ResourceTextureD2Ev
_ZN11AbyssEngine15SpecCubeMapping11SetInActiveEv
_ZN11AbyssEngine15SpecCubeMapping11ShaderIndexE
_ZN11AbyssEngine15SpecCubeMapping14UpdateMeshDataEPNS_4MeshEPNS_6EngineE
_ZN11AbyssEngine15SpecCubeMapping4InitEPNS_6EngineE
_ZN11AbyssEngine15SpecCubeMappingC1Ev
_ZN11AbyssEngine15SpecCubeMappingC2Ev
_ZN11AbyssEngine15SpecCubeMappingD0Ev
_ZN11AbyssEngine15debugModusIndexE
_ZN11AbyssEngine15firstRenderGlowE
_ZN11AbyssEngine15performanceTestE
_ZN11AbyssEngine15performanceTimeE
_ZN11AbyssEngine16AESoundRessource12checkLoopingEv
_ZN11AbyssEngine16AESoundRessource12getSoundInfoEiRNS_11AESoundInfoERi
_ZN11AbyssEngine16AESoundRessource13playMusicLoopEi
_ZN11AbyssEngine16AESoundRessource14setMusicVolumeEi
_ZN11AbyssEngine16AESoundRessource14setSoundVolumeEi
_ZN11AbyssEngine16AESoundRessource17freeAllRessourcesEv
_ZN11AbyssEngine16AESoundRessource18initWithoutLoadingEi
_ZN11AbyssEngine16AESoundRessource4initEi
_ZN11AbyssEngine16AESoundRessource4playEi
_ZN11AbyssEngine16AESoundRessource4playEif
_ZN11AbyssEngine16AESoundRessource4stopEi
_ZN11AbyssEngine16AESoundRessource4stopEv
_ZN11AbyssEngine16AESoundRessource5pauseEi
_ZN11AbyssEngine16AESoundRessource5pauseEv
_ZN11AbyssEngine16AESoundRessource6resumeEi
_ZN11AbyssEngine16AESoundRessource6resumeEv
_ZN11AbyssEngine16AESoundRessource6supendEv
_ZN11AbyssEngine16AESoundRessource7releaseEi
_ZN11AbyssEngine16AESoundRessource8SetSoundEPKNS_11AESoundInfoEi
_ZN11AbyssEngine16AESoundRessource8playLoopEi
_ZN11AbyssEngine16AESoundRessource9isPlayingEi
_ZN11AbyssEngine16AESoundRessource9playMusicEi
_ZN11AbyssEngine16AESoundRessource9setVolumeEi
_ZN11AbyssEngine16AESoundRessource9setVolumeEii
_ZN11AbyssEngine16AESoundRessourceC1Ev
_ZN11AbyssEngine16AESoundRessourceC2Ev
_ZN11AbyssEngine16AESoundRessourceD1Ev
_ZN11AbyssEngine16AESoundRessourceD2Ev
_ZN11AbyssEngine16ImageFontReleaseEPNS_6EngineEPPNS_9ImageFontE
_ZN11AbyssEngine16MeshConvertToVBOEPNS_4MeshE
_ZN11AbyssEngine16ResourceMaterialC2EtNS_9BlendModeE
_ZN11AbyssEngine16ResourceMaterialC2EttNS_9BlendModeE
_ZN11AbyssEngine16ShaderBaseStruct12DeleteShaderEv
_ZN11AbyssEngine16ShaderBaseStruct12RenderEffectEPNS_12FBOContainerEPNS_6EngineE
_ZN11AbyssEngine16ShaderBaseStruct12RenderEffectEPNS_12FBOContainerEPNS_6EngineEfNS_6AEMath6VectorE
_ZN11AbyssEngine16ShaderBaseStruct12RenderEffectEPNS_12FBOContainerERS2_PNS_6EngineE
_ZN11AbyssEngine16ShaderBaseStruct12RenderEffectEPNS_12FBOContainerERS2_PNS_6EngineEfNS_6AEMath6VectorE
_ZN11AbyssEngine16ShaderBaseStruct13ES2LoadShaderEjPKc
_ZN11AbyssEngine16ShaderBaseStruct13GetShaderNameEv
_ZN11AbyssEngine16ShaderBaseStruct14ES2LoadProgramEPKcS2_
_ZN11AbyssEngine16ShaderBaseStruct14LoadBindShaderEPKcS2_
_ZN11AbyssEngine16ShaderBaseStruct17shaderIndexInternE
_ZN11AbyssEngine16ShaderBaseStruct6UpdateEv
_ZN11AbyssEngine16ShaderBaseStruct9UseShaderEb
_ZN11AbyssEngine16ShaderBaseStructC2Ev
_ZN11AbyssEngine16ShaderBaseStructD0Ev
_ZN11AbyssEngine16ShaderBaseStructD1Ev
_ZN11AbyssEngine16ShaderBaseStructD2Ev
_ZN11AbyssEngine16SpriteSystemDrawEPNS_6EngineERKNS_6AEMath6MatrixES5_PNS_12SpriteSystemE
_ZN11AbyssEngine16TransformReleaseEPNS_6EngineEPPNS_9TransformE
_ZN11AbyssEngine16esMatrixMultiplyEPNS_8ESMatrixES1_S1_
_ZN11AbyssEngine17BumpRimCubeShader11SetInActiveEv
_ZN11AbyssEngine17BumpRimCubeShader11ShaderIndexE
_ZN11AbyssEngine17BumpRimCubeShader14UpdateMeshDataEPNS_4MeshEPNS_6EngineE
_ZN11AbyssEngine17BumpRimCubeShader4InitEPNS_6EngineE
_ZN11AbyssEngine17BumpRimCubeShaderC1Ev
_ZN11AbyssEngine17BumpRimCubeShaderC2Ev
_ZN11AbyssEngine17BumpRimCubeShaderD0Ev
_ZN11AbyssEngine17BumpShaderRefract11SetInActiveEv
_ZN11AbyssEngine17BumpShaderRefract11ShaderIndexE
_ZN11AbyssEngine17BumpShaderRefract14UpdateMeshDataEPNS_4MeshEPNS_6EngineE
_ZN11AbyssEngine17BumpShaderRefract4InitEPNS_6EngineE
_ZN11AbyssEngine17BumpShaderRefractC1Ev
_ZN11AbyssEngine17BumpShaderRefractC2Ev
_ZN11AbyssEngine17BumpShaderRefractD0Ev
_ZN11AbyssEngine17CubeNormalMapping11SetInActiveEv
_ZN11AbyssEngine17CubeNormalMapping11ShaderIndexE
_ZN11AbyssEngine17CubeNormalMapping14UpdateMeshDataEPNS_4MeshEPNS_6EngineE
_ZN11AbyssEngine17CubeNormalMapping4InitEPNS_6EngineE
_ZN11AbyssEngine17CubeNormalMappingC1Ev
_ZN11AbyssEngine17CubeNormalMappingC2Ev
_ZN11AbyssEngine17CubeNormalMappingD0Ev
_ZN11AbyssEngine17ImageFontGetWidthEPNS_9ImageFontEPKtj
_ZN11AbyssEngine17ImageFontGetWidthEPNS_9ImageFontEPKtjj
_ZN11AbyssEngine17MeshReleaseInternEPNS_6EngineEPPNS_4MeshE
_ZN11AbyssEngine17ResourceTransformD2Ev
_ZN11AbyssEngine17SpriteSystemSetUvEtffffPNS_12SpriteSystemE
_ZN11AbyssEngine17TextureConference11SetInActiveEv
_ZN11AbyssEngine17TextureConference11ShaderIndexE
_ZN11AbyssEngine17TextureConference14UpdateMeshDataEPNS_4MeshEPNS_6EngineE
_ZN11AbyssEngine17TextureConference4InitEPNS_6EngineE
_ZN11AbyssEngine17TextureConferenceC1Ev
_ZN11AbyssEngine17TextureConferenceC2Ev
_ZN11AbyssEngine17TextureConferenceD0Ev
_ZN11AbyssEngine17VertexColorShader11SetInActiveEv
_ZN11AbyssEngine17VertexColorShader11ShaderIndexE
_ZN11AbyssEngine17VertexColorShader14UpdateMeshDataEPNS_4MeshEPNS_6EngineE
_ZN11AbyssEngine17VertexColorShader4InitEPNS_6EngineE
_ZN11AbyssEngine17VertexColorShaderC1Ev
_ZN11AbyssEngine17VertexColorShaderC2Ev
_ZN11AbyssEngine17VertexColorShaderD0Ev
_ZN11AbyssEngine17timeBetweenFramesE
_ZN11AbyssEngine18ApplicationManager10CheckCrackEPKc
_ZN11AbyssEngine18ApplicationManager10OnKeyPressEi
_ZN11AbyssEngine18ApplicationManager10OnTouchEndEiiPv
_ZN11AbyssEngine18ApplicationManager10OnTouchEndEv
_ZN11AbyssEngine18ApplicationManager10SoundPauseEi
_ZN11AbyssEngine18ApplicationManager11CheatEnableEb
_ZN11AbyssEngine18ApplicationManager11CheatUpdateEt
_ZN11AbyssEngine18ApplicationManager11GetKeyStateEv
_ZN11AbyssEngine18ApplicationManager11OnTouchMoveEiiPv
_ZN11AbyssEngine18ApplicationManager11SoundEnableEb
_ZN11AbyssEngine18ApplicationManager11SoundResumeEi
_ZN11AbyssEngine18ApplicationManager11SoundResumeEv
_ZN11AbyssEngine18ApplicationManager12CheatAddCodeERKNS_6StringEi
_ZN11AbyssEngine18ApplicationManager12OnKeyReleaseEi
_ZN11AbyssEngine18ApplicationManager12OnTouchBeginEiiPv
_ZN11AbyssEngine18ApplicationManager12SoundReleaseEi
_ZN11AbyssEngine18ApplicationManager13ResetKeyStateEv
_ZN11AbyssEngine18ApplicationManager13SoundFxEnableEb
_ZN11AbyssEngine18ApplicationManager13SoundPlayLoopEi
_ZN11AbyssEngine18ApplicationManager13VibrateEnableEb
_ZN11AbyssEngine18ApplicationManager14ConfigReadFileENS_6StringE
_ZN11AbyssEngine18ApplicationManager14GetActionStateEv
_ZN11AbyssEngine18ApplicationManager14SoundIsPlayingEi
_ZN11AbyssEngine18ApplicationManager14SoundPlayMusicEi
_ZN11AbyssEngine18ApplicationManager14SoundSetVolumeEii
_ZN11AbyssEngine18ApplicationManager15SetExitCallbackEPFvvE
_ZN11AbyssEngine18ApplicationManager15SoundStopSoundsEv
_ZN11AbyssEngine18ApplicationManager16CheatSetCallbackEPFviPvES1_
_ZN11AbyssEngine18ApplicationManager16SoundMusicEnableEb
_ZN11AbyssEngine18ApplicationManager16SoundPauseSoundsEv
_ZN11AbyssEngine18ApplicationManager16SoundSetFXVolumeEi
_ZN11AbyssEngine18ApplicationManager16VibrateSupportedEv
_ZN11AbyssEngine18ApplicationManager17KeyCodeSetMappingEP5ArrayIPNS_7KeyCodeEE
_ZN11AbyssEngine18ApplicationManager17SetResumeCallbackEPFbPNS_11PaintCanvasEPvES3_
_ZN11AbyssEngine18ApplicationManager17SoundResumeSoundsEv
_ZN11AbyssEngine18ApplicationManager18ConvertTouchCoordsERiS1_
_ZN11AbyssEngine18ApplicationManager18GetApplicationDataEv
_ZN11AbyssEngine18ApplicationManager18SetApplicationDataEPv
_ZN11AbyssEngine18ApplicationManager18SetLoadingCallbackEPFvPNS_11PaintCanvasEiPvES3_
_ZN11AbyssEngine18ApplicationManager18SoundPlayMusicLoopEi
_ZN11AbyssEngine18ApplicationManager19GetSystemTimeMillisEv
_ZN11AbyssEngine18ApplicationManager19LoadingCallbackShowEiPv
_ZN11AbyssEngine18ApplicationManager19SoundSetMusicVolumeEi
_ZN11AbyssEngine18ApplicationManager20ConfigRegisterActionExx
_ZN11AbyssEngine18ApplicationManager20GetApplicationModuleEj
_ZN11AbyssEngine18ApplicationManager20GetCurrentTimeMillisEv
_ZN11AbyssEngine18ApplicationManager20GetElapsedTimeMillisEv
_ZN11AbyssEngine18ApplicationManager20SetApplicationModuleEPNS_18IApplicationModuleE
_ZN11AbyssEngine18ApplicationManager21EnablePerformanceTestEi
_ZN11AbyssEngine18ApplicationManager22ConfigGetKeysForActionEx
_ZN11AbyssEngine18ApplicationManager25CheckForOrientationChangeEv
_ZN11AbyssEngine18ApplicationManager25RegisterApplicationModuleEjPNS_18IApplicationModuleE
_ZN11AbyssEngine18ApplicationManager27GetApplicationVersionStringEv
_ZN11AbyssEngine18ApplicationManager27SetCurrentApplicationModuleEj
_ZN11AbyssEngine18ApplicationManager31ConfigRegisterTokenReadFunctionENS_6StringEPFvPNS_12ConfigReaderEPvES4_
_ZN11AbyssEngine18ApplicationManager4QuitEv
_ZN11AbyssEngine18ApplicationManager6ResumeEb
_ZN11AbyssEngine18ApplicationManager7SuspendEv
_ZN11AbyssEngine18ApplicationManager7VibrateEt
_ZN11AbyssEngine18ApplicationManager8OnUpdateEx
_ZN11AbyssEngine18ApplicationManager8SoundSetEPKNS_11AESoundInfoEi
_ZN11AbyssEngine18ApplicationManager9GetEngineEv
_ZN11AbyssEngine18ApplicationManager9SoundPlayEi
_ZN11AbyssEngine18ApplicationManager9SoundPlayEif
_ZN11AbyssEngine18ApplicationManager9SoundStopEi
_ZN11AbyssEngine18ApplicationManagerC1EPNS_6EngineE
_ZN11AbyssEngine18ApplicationManagerC2EPNS_6EngineE
_ZN11AbyssEngine18ApplicationManagerD1Ev
_ZN11AbyssEngine18ApplicationManagerD2Ev
_ZN11AbyssEngine18BumpShaderParticle11SetInActiveEv
_ZN11AbyssEngine18BumpShaderParticle11ShaderIndexE
_ZN11AbyssEngine18BumpShaderParticle14UpdateMeshDataEPNS_4MeshEPNS_6EngineE
_ZN11AbyssEngine18BumpShaderParticle4InitEPNS_6EngineE
_ZN11AbyssEngine18BumpShaderParticleC1Ev
_ZN11AbyssEngine18BumpShaderParticleC2Ev
_ZN11AbyssEngine18BumpShaderParticleD0Ev
_ZN11AbyssEngine18IApplicationModule10OnTouchEndEiiPv
_ZN11AbyssEngine18IApplicationModule11OnTouchMoveEiiPv
_ZN11AbyssEngine18IApplicationModule12OnTouchBeginEiiPv
_ZN11AbyssEngine18IApplicationModule21SetApplicationManagerEPNS_18ApplicationManagerE
_ZN11AbyssEngine18IApplicationModule8OnResumeEv
_ZN11AbyssEngine18IApplicationModule9OnSuspendEv
_ZN11AbyssEngine18ImageFontGetHeightEPNS_9ImageFontE
_ZN11AbyssEngine18MeshCreateFromFileEPNS_6EngineEPKcPPNS_4MeshEPNS_8MaterialE
_ZN11AbyssEngine18SpriteSystemCreateEPNS_6EngineEtbPPNS_12SpriteSystemE
_ZN11AbyssEngine18TextureLightShader11SetInActiveEv
_ZN11AbyssEngine18TextureLightShader11ShaderIndexE
_ZN11AbyssEngine18TextureLightShader14UpdateMeshDataEPNS_4MeshEPNS_6EngineE
_ZN11AbyssEngine18TextureLightShader4InitEPNS_6EngineE
_ZN11AbyssEngine18TextureLightShaderC1Ev
_ZN11AbyssEngine18TextureLightShaderC2Ev
_ZN11AbyssEngine18TextureLightShaderD0Ev
_ZN11AbyssEngine18computeFloatStringEfiPiS0_i
_ZN11AbyssEngine19BiasErrorOutputFlagE
_ZN11AbyssEngine19ImageCreateFromFileEPNS_6EngineEPKcPPNS_5ImageE
_ZN11AbyssEngine19ImageFontDrawStringEPNS_9ImageFontEPKtiiPNS_11PaintCanvasEPNS_6EngineEb
_ZN11AbyssEngine19ImageFontDrawStringEPNS_9ImageFontEPKtjiiPNS_11PaintCanvasEPNS_6EngineEb
_ZN11AbyssEngine19ImageFontGetSpacingEPNS_9ImageFontE
_ZN11AbyssEngine19ImageFontGetYOffsetEPNS_9ImageFontE
_ZN11AbyssEngine19ImageFontSetSpacingEPNS_9ImageFontEs
_ZN11AbyssEngine19ImageFontSetYOffsetEPNS_9ImageFontEs
_ZN11AbyssEngine19NoTexVtxColorShader11SetInActiveEv
_ZN11AbyssEngine19NoTexVtxColorShader11ShaderIndexE
_ZN11AbyssEngine19NoTexVtxColorShader14UpdateMeshDataEPNS_4MeshEPNS_6EngineE
_ZN11AbyssEngine19NoTexVtxColorShader4InitEPNS_6EngineE
_ZN11AbyssEngine19NoTexVtxColorShaderC1Ev
_ZN11AbyssEngine19NoTexVtxColorShaderC2Ev
_ZN11AbyssEngine19NoTexVtxColorShaderD0Ev
_ZN11AbyssEngine19SpriteSystemReleaseEPNS_6EngineEPPNS_12SpriteSystemE
_ZN11AbyssEngine19SpriteSystemSetRGBAEtffffPNS_12SpriteSystemE
_ZN11AbyssEngine20CameraSetPerspectiveEffffPNS_6CameraE
_ZN11AbyssEngine20CameraSetPerspectiveEfffffPNS_6CameraE
_ZN11AbyssEngine20ImageFontCheckStringEPNS_9ImageFontEPKtj
_ZN11AbyssEngine20SpecCubeAlphaMapping11SetInActiveEv
_ZN11AbyssEngine20SpecCubeAlphaMapping11ShaderIndexE
_ZN11AbyssEngine20SpecCubeAlphaMapping14UpdateMeshDataEPNS_4MeshEPNS_6EngineE
_ZN11AbyssEngine20SpecCubeAlphaMapping4InitEPNS_6EngineE
_ZN11AbyssEngine20SpecCubeAlphaMappingC1Ev
_ZN11AbyssEngine20SpecCubeAlphaMappingC2Ev
_ZN11AbyssEngine20SpecCubeAlphaMappingD0Ev
_ZN11AbyssEngine20SpriteSystemSetAllUvEffffPNS_12SpriteSystemE
_ZN11AbyssEngine20performanceTestEndedE
_ZN11AbyssEngine21BumpRimCubeShader_new11SetInActiveEv
_ZN11AbyssEngine21BumpRimCubeShader_new11ShaderIndexE
_ZN11AbyssEngine21BumpRimCubeShader_new14UpdateMeshDataEPNS_4MeshEPNS_6EngineE
_ZN11AbyssEngine21BumpRimCubeShader_new4InitEPNS_6EngineE
_ZN11AbyssEngine21BumpRimCubeShader_newC1Ev
_ZN11AbyssEngine21BumpRimCubeShader_newC2Ev
_ZN11AbyssEngine21BumpRimCubeShader_newD0Ev
_ZN11AbyssEngine21TextureCreateFromFileEPNS_6EngineEPKcPFvPNS_5ImageEPvES6_Pjbf
_ZN11AbyssEngine21TextureVtxColorShader11SetInActiveEv
_ZN11AbyssEngine21TextureVtxColorShader11ShaderIndexE
_ZN11AbyssEngine21TextureVtxColorShader14UpdateMeshDataEPNS_4MeshEPNS_6EngineE
_ZN11AbyssEngine21TextureVtxColorShader23ConnectShaderComponentsEji
_ZN11AbyssEngine21TextureVtxColorShader4InitEPNS_6EngineE
_ZN11AbyssEngine21TextureVtxColorShader9UseShaderEb
_ZN11AbyssEngine21TextureVtxColorShaderC1Ev
_ZN11AbyssEngine21TextureVtxColorShaderC2Ev
_ZN11AbyssEngine21TextureVtxColorShaderD0Ev
_ZN11AbyssEngine21TransformConvertToVBOEPNS_9TransformE
_ZN11AbyssEngine22MeshConvertToVBOInternEPNS_4MeshE
_ZN11AbyssEngine22SimpleRefractionShader11SetInActiveEv
_ZN11AbyssEngine22SimpleRefractionShader11ShaderIndexE
_ZN11AbyssEngine22SimpleRefractionShader14UpdateMeshDataEPNS_4MeshEPNS_6EngineE
_ZN11AbyssEngine22SimpleRefractionShader4InitEPNS_6EngineE
_ZN11AbyssEngine22SimpleRefractionShaderC1Ev
_ZN11AbyssEngine22SimpleRefractionShaderC2Ev
_ZN11AbyssEngine22SimpleRefractionShaderD0Ev
_ZN11AbyssEngine22SpriteSystemSetAllSizeEsPNS_12SpriteSystemE
_ZN11AbyssEngine22TextureAlphaTestShader11SetInActiveEv
_ZN11AbyssEngine22TextureAlphaTestShader11ShaderIndexE
_ZN11AbyssEngine22TextureAlphaTestShader14UpdateMeshDataEPNS_4MeshEPNS_6EngineE
_ZN11AbyssEngine22TextureAlphaTestShader23ConnectShaderComponentsEji
_ZN11AbyssEngine22TextureAlphaTestShader4InitEPNS_6EngineE
_ZN11AbyssEngine22TextureAlphaTestShader9UseShaderEb
_ZN11AbyssEngine22TextureAlphaTestShaderC1Ev
_ZN11AbyssEngine22TextureAlphaTestShaderC2Ev
_ZN11AbyssEngine22TextureAlphaTestShaderD0Ev
_ZN11AbyssEngine22currentUsedShaderIndexE
_ZN11AbyssEngine22orientationChangeTimerE
_ZN11AbyssEngine23ImageCreateFontFromFileEPNS_6EngineEPKctPPNS_9ImageFontE
_ZN11AbyssEngine23performanceFrameCounterE
_ZN11AbyssEngine24performanceModulSwitchesE
_ZN11AbyssEngine25GenerateCompressedTextureEPNS_5ImageE
_ZN11AbyssEngine25ImageCreateRegionFromFileEPNS_6EngineEPKctPNS_7Image2DE
_ZN11AbyssEngine26CameraIsPointinViewFrustumERKNS_6AEMath6VectorEPNS0_6MatrixEPNS_6CameraE
_ZN11AbyssEngine27CameraIsSphereinViewFrustumERKNS_6AEMath6VectorEfPNS0_6MatrixEPNS_6CameraE
_ZN11AbyssEngine27TextureCreateFromFileInternEPNS_6EngineEPKcPFvPNS_5ImageEPvES6_PjfPNS_15AELoadedTextureEb
_ZN11AbyssEngine29VertexColorAlphaTextureShader11SetInActiveEv
_ZN11AbyssEngine29VertexColorAlphaTextureShader11ShaderIndexE
_ZN11AbyssEngine29VertexColorAlphaTextureShader14UpdateMeshDataEPNS_4MeshEPNS_6EngineE
_ZN11AbyssEngine29VertexColorAlphaTextureShader4InitEPNS_6EngineE
_ZN11AbyssEngine29VertexColorAlphaTextureShaderC1Ev
_ZN11AbyssEngine29VertexColorAlphaTextureShaderC2Ev
_ZN11AbyssEngine29VertexColorAlphaTextureShaderD0Ev
_ZN11AbyssEngine31performanceOverallModulSwitchesE
_ZN11AbyssEngine4MODFEfPf
_ZN11AbyssEngine4Mesh24ReadEnhancedDataFromFileEjj
_ZN11AbyssEngine4MeshC1EPS0_
_ZN11AbyssEngine4MeshC2EPS0_
_ZN11AbyssEngine4laufE
_ZN11AbyssEngine5i_fovE
_ZN11AbyssEngine6AEMath10VectorLerpERKNS0_6VectorES3_f
_ZN11AbyssEngine6AEMath11MatrixGetGLERKNS0_6MatrixEPf
_ZN11AbyssEngine6AEMath11MatrixGetUpERKNS0_6MatrixE
_ZN11AbyssEngine6AEMath11VectorCrossERKNS0_6VectorES3_
_ZN11AbyssEngine6AEMath12MatrixGetDirERKNS0_6MatrixE
_ZN11AbyssEngine6AEMath12VectorLengthERKNS0_6VectorE
_ZN11AbyssEngine6AEMath13MatrixIsEqualERKNS0_6MatrixES3_
_ZN11AbyssEngine6AEMath13VectorIsEqualERKNS0_6VectorES3_
_ZN11AbyssEngine6AEMath14MatrixDebugOutERKNS0_6MatrixE
_ZN11AbyssEngine6AEMath14MatrixGetRightERKNS0_6MatrixE
_ZN11AbyssEngine6AEMath14MatrixIdentityERNS0_6MatrixE
_ZN11AbyssEngine6AEMath14MatrixMultiplyERKNS0_6MatrixES3_
_ZN11AbyssEngine6AEMath15MatrixGetLookAtERKNS0_6VectorES3_S3_
_ZN11AbyssEngine6AEMath15VectorNormalizeERKNS0_6VectorE
_ZN11AbyssEngine6AEMath16MatrixGetInverseERKNS0_6MatrixE
_ZN11AbyssEngine6AEMath16MatrixSetScalingERNS0_6MatrixEfff
_ZN11AbyssEngine6AEMath17MatrixGetPositionERKNS0_6MatrixE
_ZN11AbyssEngine6AEMath17MatrixSetRotationERNS0_6MatrixERKNS0_6VectorE
_ZN11AbyssEngine6AEMath17MatrixSetRotationERNS0_6MatrixERKNS0_6VectorES5_S5_
_ZN11AbyssEngine6AEMath17MatrixSetRotationERNS0_6MatrixEfff
_ZN11AbyssEngine6AEMath17MatrixSetRotationERNS0_6MatrixEfffNS0_13RotationOrderE
_ZN11AbyssEngine6AEMath18MatrixRotateVectorERKNS0_6MatrixERKNS0_6VectorE
_ZN11AbyssEngine6AEMath20MatrixSetTranslationERNS0_6MatrixERKNS0_6VectorE
_ZN11AbyssEngine6AEMath20MatrixSetTranslationERNS0_6MatrixEfff
_ZN11AbyssEngine6AEMath21MatrixTransformVectorERKNS0_6MatrixERKNS0_6VectorE
_ZN11AbyssEngine6AEMath25MatrixInverseRotateVectorERKNS0_6MatrixERKNS0_6VectorE
_ZN11AbyssEngine6AEMath28MatrixInverseTransformVectorERKNS0_6MatrixERKNS0_6VectorE
_ZN11AbyssEngine6AEMath3MaxEff
_ZN11AbyssEngine6AEMath3MinEff
_ZN11AbyssEngine6AEMath3PowEff
_ZN11AbyssEngine6AEMath4AbsfEf
_ZN11AbyssEngine6AEMath4CosfEf
_ZN11AbyssEngine6AEMath4SinfEf
_ZN11AbyssEngine6AEMath5ACosfEf
_ZN11AbyssEngine6AEMath5ATanfEf
_ZN11AbyssEngine6AEMath5SqrtfEf
_ZN11AbyssEngine6AEMath6MatrixC2Ev
_ZN11AbyssEngine6AEMath6MatrixaSERKS1_
_ZN11AbyssEngine6AEMath6MatrixcvPfEv
_ZN11AbyssEngine6AEMath6MatrixmLERKS1_
_ZN11AbyssEngine6AEMath6VectoraSERKS1_
_ZN11AbyssEngine6AEMath6VectorcvPfEv
_ZN11AbyssEngine6AEMath6VectordVERKS1_
_ZN11AbyssEngine6AEMath6VectordVEf
_ZN11AbyssEngine6AEMath6VectorixEi
_ZN11AbyssEngine6AEMath6VectormIERKS1_
_ZN11AbyssEngine6AEMath6VectormLERKS1_
_ZN11AbyssEngine6AEMath6VectormLEf
_ZN11AbyssEngine6AEMath6VectorpLERKS1_
_ZN11AbyssEngine6AEMath7BSphere5MergeERKNS_9TransformE
_ZN11AbyssEngine6AEMath7BSphere5MergeERKS1_
_ZN11AbyssEngine6AEMath7BSphereaSERKS1_
_ZN11AbyssEngine6AEMath7InvSqrtEf
_ZN11AbyssEngine6AEMath9VectorDotERKNS0_6VectorES3_
_ZN11AbyssEngine6AEMathdvERKNS0_6VectorES3_
_ZN11AbyssEngine6AEMathdvERKNS0_6VectorEf
_ZN11AbyssEngine6AEMathdvEfRKNS0_6VectorE
_ZN11AbyssEngine6AEMatheqERKNS0_6MatrixES3_
_ZN11AbyssEngine6AEMatheqERKNS0_6VectorES3_
_ZN11AbyssEngine6AEMathgeERKNS0_6VectorES3_
_ZN11AbyssEngine6AEMathgtERKNS0_6VectorES3_
_ZN11AbyssEngine6AEMathleERKNS0_6VectorES3_
_ZN11AbyssEngine6AEMathltERKNS0_6VectorES3_
_ZN11AbyssEngine6AEMathmiERKNS0_6VectorES3_
_ZN11AbyssEngine6AEMathmlERKNS0_6MatrixERKNS0_6VectorE
_ZN11AbyssEngine6AEMathmlERKNS0_6MatrixES3_
_ZN11AbyssEngine6AEMathmlERKNS0_6VectorES3_
_ZN11AbyssEngine6AEMathmlERKNS0_6VectorEf
_ZN11AbyssEngine6AEMathmlEfRKNS0_6VectorE
_ZN11AbyssEngine6AEMathneERKNS0_6MatrixES3_
_ZN11AbyssEngine6AEMathneERKNS0_6VectorES3_
_ZN11AbyssEngine6AEMathngERKNS0_6VectorE
_ZN11AbyssEngine6AEMathplERKNS0_6VectorES3_
_ZN11AbyssEngine6AEMathpsERKNS0_6VectorE
_ZN11AbyssEngine6CameraC2Efffff
_ZN11AbyssEngine6Engine10DrawLine2DEPfib
_ZN11AbyssEngine6Engine10EnableGlowE
_ZN11AbyssEngine6Engine10ImageCountE
_ZN11AbyssEngine6Engine10InitializeEPFvPS0_E
_ZN11AbyssEngine6Engine10RenderMeshEPNS_4MeshE
_ZN11AbyssEngine6Engine10SetAddDataEPvi
_ZN11AbyssEngine6Engine10ShaderInitEv
_ZN11AbyssEngine6Engine10SwapBufferEv
_ZN11AbyssEngine6Engine10fogEnabledE
_ZN11AbyssEngine6Engine10switchGlowE
_ZN11AbyssEngine6Engine11AfterGLInitEv
_ZN11AbyssEngine6Engine11ClearBufferEj
_ZN11AbyssEngine6Engine11GlowEndGlowEv
_ZN11AbyssEngine6Engine11LightEnableEb
_ZN11AbyssEngine6Engine11SetTexturesEjj
_ZN11AbyssEngine6Engine11SetUVMatrixERKNS_6AEMath6MatrixE
_ZN11AbyssEngine6Engine11SwapCounterE
_ZN11AbyssEngine6Engine11countryCodeE
_ZN11AbyssEngine6Engine11switchBloomE
_ZN11AbyssEngine6Engine12DoPostEffectEv
_ZN11AbyssEngine6Engine12DrawCloakFBOEPNS_12FBOContainerE
_ZN11AbyssEngine6Engine12GetGravValueEv
_ZN11AbyssEngine6Engine12HasVibrationEv
_ZN11AbyssEngine6Engine12SetGravValueEddd
_ZN11AbyssEngine6Engine12ShaderUpdateEv
_ZN11AbyssEngine6Engine12enableShaderE
_ZN11AbyssEngine6Engine12vboSupportedE
_ZN11AbyssEngine6Engine13AEClientStateEjb
_ZN11AbyssEngine6Engine13EnableRefractE
_ZN11AbyssEngine6Engine13GetAccelValueEv
_ZN11AbyssEngine6Engine13GetDeviceInfoEv
_ZN11AbyssEngine6Engine13GlowBeginGlowEi
_ZN11AbyssEngine6Engine13LightSetLightEj
_ZN11AbyssEngine6Engine13LodDistShaderE
_ZN11AbyssEngine6Engine13ReloadShadersEv
_ZN11AbyssEngine6Engine13ResetUVMatrixEv
_ZN11AbyssEngine6Engine13SetAccelValueEddd
_ZN11AbyssEngine6Engine13SetPostEffectEjb
_ZN11AbyssEngine6Engine13clampTexturesE
_ZN11AbyssEngine6Engine13lodBiasNormalE
_ZN11AbyssEngine6Engine14DisableRefractE
_ZN11AbyssEngine6Engine14GlowEnableGlowEv
_ZN11AbyssEngine6Engine14SetEyePositionEfff
_ZN11AbyssEngine6Engine14SetModelMatrixERKNS_6AEMath6MatrixE
_ZN11AbyssEngine6Engine14SetOrthoMatrixEPfS1_b
_ZN11AbyssEngine6Engine14SetPerspMatrixEPf
_ZN11AbyssEngine6Engine14SetTextureSlotEjj
_ZN11AbyssEngine6Engine14SetTexturesExtEjz
_ZN11AbyssEngine6Engine14ShaderRegisterEPNS_16ShaderBaseStructE
_ZN11AbyssEngine6Engine14lodBiasDiffuseE
_ZN11AbyssEngine6Engine15AnisotropyValueE
_ZN11AbyssEngine6Engine15GetDisplayWidthEv
_ZN11AbyssEngine6Engine15GrabFrameBufferEv
_ZN11AbyssEngine6Engine15KeepRawMeshDataE
_ZN11AbyssEngine6Engine15ResetLightParamEv
_ZN11AbyssEngine6Engine15SetOnDestroyAppEPFvPS0_E
_ZN11AbyssEngine6Engine15ShaderSetActiveEiPNS_4MeshE
_ZN11AbyssEngine6Engine15backupSaveGamesE
_ZN11AbyssEngine6Engine16EnablePostEffectE
_ZN11AbyssEngine6Engine16GetDisplayHeightEv
_ZN11AbyssEngine6Engine16GetJPEGImageDataEf
_ZN11AbyssEngine6Engine16LightSetRimColorEfff
_ZN11AbyssEngine6Engine16MultiSampleValueE
_ZN11AbyssEngine6Engine17ShaderSetInActiveEv
_ZN11AbyssEngine6Engine17UseAdvancedShaderE
_ZN11AbyssEngine6Engine17enableReverseFlagE
_ZN11AbyssEngine6Engine17initFileInterfaceEv
_ZN11AbyssEngine6Engine18ActivateRefractFBOEv
_ZN11AbyssEngine6Engine18ActivateTextureFBOEv
_ZN11AbyssEngine6Engine18ActivateViewBufferEv
_ZN11AbyssEngine6Engine18IsRefractActivatedEv
_ZN11AbyssEngine6Engine18LightSetLightCountEi
_ZN11AbyssEngine6Engine18SetWorldViewMatrixERKNS_6AEMath6MatrixE
_ZN11AbyssEngine6Engine19ActivateFrameBufferEi
_ZN11AbyssEngine6Engine20IsExtensionSupportedEPKc
_ZN11AbyssEngine6Engine20SetScreenOrientationENS_13LandscapeModeE
_ZN11AbyssEngine6Engine21IsPostEffectActivatedEv
_ZN11AbyssEngine6Engine21LightSetLightPositionEfffj
_ZN11AbyssEngine6Engine21SetFrameBufferTextureEii
_ZN11AbyssEngine6Engine22ActivateRender2FracFBOEv
_ZN11AbyssEngine6Engine22LightSetLightDirectionEfffj
_ZN11AbyssEngine6Engine22SaveImageToPhotosAlbumEv
_ZN11AbyssEngine6Engine23LightSetParticleAmbientEfff
_ZN11AbyssEngine6Engine24DeactivateRender2FracFBOEv
_ZN11AbyssEngine6Engine25ActivateRender2TextureFBOEv
_ZN11AbyssEngine6Engine25CheckForOrientationChangeE
_ZN11AbyssEngine6Engine25LightSetLightColorAmbientEfffj
_ZN11AbyssEngine6Engine25LightSetLightColorDiffuseEfffj
_ZN11AbyssEngine6Engine25SetFrameBufferScaleFactorEfi
_ZN11AbyssEngine6Engine26LightSetLightColorSpecularEfffj
_ZN11AbyssEngine6Engine26LightSetMaterialColorAlphaEf
_ZN11AbyssEngine6Engine27DeactivateRender2TextureFBOEv
_ZN11AbyssEngine6Engine28LightSetMaterialColorAmbientEfff
_ZN11AbyssEngine6Engine28LightSetMaterialColorDiffuseEfff
_ZN11AbyssEngine6Engine29LightSetMaterialColorSpecularEfff
_ZN11AbyssEngine6Engine30LightSetMaterialColorShininessEf
_ZN11AbyssEngine6Engine31LightSetGlobalSceneColorAmbientEfff
_ZN11AbyssEngine6Engine3vfcE
_ZN11AbyssEngine6Engine4tv_hE
_ZN11AbyssEngine6Engine4tv_wE
_ZN11AbyssEngine6Engine6InitGLEbii
_ZN11AbyssEngine6Engine6ResumeEv
_ZN11AbyssEngine6Engine6vendorE
_ZN11AbyssEngine6Engine7CopyFBOEv
_ZN11AbyssEngine6Engine7DrawFBOE
_ZN11AbyssEngine6Engine7ReleaseEv
_ZN11AbyssEngine6Engine7SuspendEv
_ZN11AbyssEngine6Engine7VibrateEt
_ZN11AbyssEngine6Engine7vboSizeE
_ZN11AbyssEngine6Engine8DEBUGKEYE
_ZN11AbyssEngine6Engine8DrawQuadEiiii
_ZN11AbyssEngine6Engine8GlEnableEjb
_ZN11AbyssEngine6Engine8SetColorEffff
_ZN11AbyssEngine6Engine8TVEnableE
_ZN11AbyssEngine6Engine8farPlaneE
_ZN11AbyssEngine6Engine8rendererE
_ZN11AbyssEngine6Engine8tv_modesE
_ZN11AbyssEngine6Engine9PreUpdateEv
_ZN11AbyssEngine6Engine9ReleaseGLEv
_ZN11AbyssEngine6Engine9WireFrameE
_ZN11AbyssEngine6Engine9nearPlaneE
_ZN11AbyssEngine6EngineC1Ev
_ZN11AbyssEngine6EngineC2Ev
_ZN11AbyssEngine6EngineD1Ev
_ZN11AbyssEngine6EngineD2Ev
_ZN11AbyssEngine6String11ReplaceCharEcc
_ZN11AbyssEngine6String11ToLowerCaseEv
_ZN11AbyssEngine6String11ToUpperCaseEv
_ZN11AbyssEngine6String13ReplaceStringES0_S0_
_ZN11AbyssEngine6String15ConvertFromUTF8Ev
_ZN11AbyssEngine6String15GetStringLengthEPKc
_ZN11AbyssEngine6String16getWCharFromUtf8EPci
_ZN11AbyssEngine6String3SetEPKc
_ZN11AbyssEngine6String3SetEPKt
_ZN11AbyssEngine6String3SetEf
_ZN11AbyssEngine6String3SetEx
_ZN11AbyssEngine6String4TrimEv
_ZN11AbyssEngine6String5SplitES0_
_ZN11AbyssEngine6String6StrLenEPKc
_ZN11AbyssEngine6String6StrLenEPKt
_ZN11AbyssEngine6String7CompareEPKc
_ZN11AbyssEngine6String7CompareERKS0_
_ZN11AbyssEngine6String7IndexOfERKS0_
_ZN11AbyssEngine6String7IndexOfEjRKS0_
_ZN11AbyssEngine6String7ReverseEv
_ZN11AbyssEngine6String7ValueOfEv
_ZN11AbyssEngine6String8PrintOutEv
_ZN11AbyssEngine6String8termCharE
_ZN11AbyssEngine6String9SplitTagsES0_
_ZN11AbyssEngine6String9SubStringEjj
_ZN11AbyssEngine6StringC1EPKcb
_ZN11AbyssEngine6StringC1EPKtb
_ZN11AbyssEngine6StringC1ERKS0_b
_ZN11AbyssEngine6StringC1Ev
_ZN11AbyssEngine6StringC2EPKcb
_ZN11AbyssEngine6StringC2EPKtb
_ZN11AbyssEngine6StringC2ERKS0_b
_ZN11AbyssEngine6StringC2Ec
_ZN11AbyssEngine6StringC2Ef
_ZN11AbyssEngine6StringC2Ei
_ZN11AbyssEngine6StringC2Ev
_ZN11AbyssEngine6StringC2Ex
_ZN11AbyssEngine6StringD0Ev
_ZN11AbyssEngine6StringD1Ev
_ZN11AbyssEngine6StringD2Ev
_ZN11AbyssEngine6StringaSERKS0_
_ZN11AbyssEngine6StringcvPtEv
_ZN11AbyssEngine6StringixEi
_ZN11AbyssEngine6StringpLERKS0_
_ZN11AbyssEngine6StringpLERKc
_ZN11AbyssEngine6StringpLERKf
_ZN11AbyssEngine6StringpLERKi
_ZN11AbyssEngine6StringpLERKx
_ZN11AbyssEngine6i_zFarE
_ZN11AbyssEngine7AESound11unloadSoundEv
_ZN11AbyssEngine7AESound14setMusicVolumeEi
_ZN11AbyssEngine7AESound14setSoundVolumeEi
_ZN11AbyssEngine7AESound4playEf
_ZN11AbyssEngine7AESound4playEv
_ZN11AbyssEngine7AESound4stopEv
_ZN11AbyssEngine7AESound5pauseEv
_ZN11AbyssEngine7AESound6loadedEv
_ZN11AbyssEngine7AESound6resumeEv
_ZN11AbyssEngine7AESound7releaseEv
_ZN11AbyssEngine7AESound7setGainEi
_ZN11AbyssEngine7AESound8playLoopEv
_ZN11AbyssEngine7AESound9isPlayingEv
_ZN11AbyssEngine7AESound9loadSoundEPKc
_ZN11AbyssEngine7AESound9setVolumeEi
_ZN11AbyssEngine7KeyCodeaSERKS0_
_ZN11AbyssEngine7i_zNearE
_ZN11AbyssEngine8AERandom4nextEi
_ZN11AbyssEngine8AERandom5resetEv
_ZN11AbyssEngine8AERandom7nextIntEi
_ZN11AbyssEngine8AERandom7nextIntEv
_ZN11AbyssEngine8AERandom7setSeedEx
_ZN11AbyssEngine8AERandomC1Ev
_ZN11AbyssEngine8AERandomC1Ex
_ZN11AbyssEngine8AERandomC2Ev
_ZN11AbyssEngine8AERandomC2Ex
_ZN11AbyssEngine8AERandomD1Ev
_ZN11AbyssEngine8AERandomD2Ev
_ZN11AbyssEngine8KeyFrameC2Ev
_ZN11AbyssEngine8MaterialC2EPS0_
_ZN11AbyssEngine8MaterialC2Ev
_ZN11AbyssEngine8MaterialD2Ev
_ZN11AbyssEngine8MeshDrawEPNS_6EngineEPNS_4MeshE
_ZN11AbyssEngine8fpsTimerE
_ZN11AbyssEngine8loadMeshE
_ZN11AbyssEngine8triDrawnE
_ZN11AbyssEngine9CheatCode6UpdateEt
_ZN11AbyssEngine9CheatCodeC1Ev
_ZN11AbyssEngine9CheatCodeC2Ev
_ZN11AbyssEngine9CheatCodeD1Ev
_ZN11AbyssEngine9CheatCodeD2Ev
_ZN11AbyssEngine9DNSShader11SetInActiveEv
_ZN11AbyssEngine9DNSShader11ShaderIndexE
_ZN11AbyssEngine9DNSShader14UpdateMeshDataEPNS_4MeshEPNS_6EngineE
_ZN11AbyssEngine9DNSShader4InitEPNS_6EngineE
_ZN11AbyssEngine9DNSShaderC1Ev
_ZN11AbyssEngine9DNSShaderC2Ev
_ZN11AbyssEngine9DNSShaderD0Ev
_ZN11AbyssEngine9EaseInOut11GetMaxValueEv
_ZN11AbyssEngine9EaseInOut11GetMinValueEv
_ZN11AbyssEngine9EaseInOut13SetToMaxValueEv
_ZN11AbyssEngine9EaseInOut13SetToMinValueEv
_ZN11AbyssEngine9EaseInOut18UpdateCurrentValueEv
_ZN11AbyssEngine9EaseInOut6RunOutEf
_ZN11AbyssEngine9EaseInOut8DecreaseEf
_ZN11AbyssEngine9EaseInOut8GetValueEv
_ZN11AbyssEngine9EaseInOut8IncreaseEf
_ZN11AbyssEngine9EaseInOut8SetRangeEff
_ZN11AbyssEngine9EaseInOutC1Eff
_ZN11AbyssEngine9EaseInOutC1Ev
_ZN11AbyssEngine9EaseInOutC2Eff
_ZN11AbyssEngine9EaseInOutC2Ev
_ZN11AbyssEngine9ShaderSetE
_ZN11AbyssEngine9Transform10InCameraVFEPNS_6AEMath6MatrixEPNS_6CameraE
_ZN11AbyssEngine9Transform10SetVFCFlagEb
_ZN11AbyssEngine9Transform10SetVisibleEb
_ZN11AbyssEngine9Transform11AddKeyFrameERKNS_6AEMath6VectorES4_S4_S4_S4_S4_i
_ZN11AbyssEngine9Transform12InternUpdateExb
_ZN11AbyssEngine9Transform14InsertKeyFrameEPKfxi
_ZN11AbyssEngine9Transform14InsertKeyFrameEPNS_8KeyFrameEi
_ZN11AbyssEngine9Transform15UpdateKeyFramesEPNS_8KeyFrameEi
_ZN11AbyssEngine9Transform17SetAnimationSpeedEf
_ZN11AbyssEngine9Transform17SetAnimationStateENS_13AnimationModeEPv
_ZN11AbyssEngine9Transform18InsertKeyFrame_oldEPKfxi
_ZN11AbyssEngine9Transform18SetAnimationLengthEx
_ZN11AbyssEngine9Transform20CollectAnimationDataEv
_ZN11AbyssEngine9Transform23SetAnimationRangeInTimeExx
_ZN11AbyssEngine9Transform23SetCurrentAnimationTimeEx
_ZN11AbyssEngine9Transform24InitAnimationRangeInTimeEv
_ZN11AbyssEngine9Transform26PauseAnimationWithKeyFrameEi
_ZN11AbyssEngine9Transform27PauseAnimationWithTimeStampEx
_ZN11AbyssEngine9Transform28SetAnimationRangeInKeyFramesEii
_ZN11AbyssEngine9Transform6UpdateExb
_ZN11AbyssEngine9Transform8DebugOutEi
_ZN11AbyssEngine9Transform9IsRunningEv
_ZN11AbyssEngine9TransformC1EPS0_
_ZN11AbyssEngine9TransformC1Ev
_ZN11AbyssEngine9TransformC2EPS0_
_ZN11AbyssEngine9TransformC2Ev
_ZN11AbyssEngine9TransformD1Ev
_ZN11AbyssEngine9TransformD2Ev
_ZN11AbyssEngineeqERKNS_6StringES2_
_ZN11AbyssEnginemiERKNS_10QuaternionES2_
_ZN11AbyssEnginemlERKNS_10QuaternionEf
_ZN11AbyssEngineplERKNS_10QuaternionES2_
_ZN11AbyssEngineplERKNS_6StringERKf
_ZN11AbyssEngineplERKNS_6StringERKi
_ZN11AbyssEngineplERKNS_6StringERKx
_ZN11AbyssEngineplERKNS_6StringES2_
_ZN11AbyssEngineplERKfRKNS_6StringE
_ZN11AbyssEngineplERKiRKNS_6StringE
_ZN11AbyssEngineplERKxRKNS_6StringE
_ZN11AbyssEnginepsERKNS_6StringE
_ZN11BoundingAAB12outerCollideEfff
_ZN11BoundingAAB18getCollisionNormalERKN11AbyssEngine6AEMath6VectorE
_ZN11BoundingAAB25projectCollisionOnSurfaceERKN11AbyssEngine6AEMath6VectorE
_ZN11BoundingAAB6updateEfff
_ZN11BoundingAAB7collideEfff
_ZN11BoundingAABC1Efffffffff
_ZN11BoundingAABC2Efffffffff
_ZN11BoundingAABD1Ev
_ZN11BoundingAABD2Ev
_ZN11HackingGame10isRotatingEv
_ZN11HackingGame12rotateLeftCWEPi
_ZN11HackingGame12rotateLeftCWEb
_ZN11HackingGame13getRewardItemEv
_ZN11HackingGame13rotateRightCWEPi
_ZN11HackingGame13rotateRightCWEb
_ZN11HackingGame15getDockingIndexEv
_ZN11HackingGame15getRewardAmountEv
_ZN11HackingGame16solvableInNStepsEiiiiPi
_ZN11HackingGame6reInitEv
_ZN11HackingGame6updateEi
_ZN11HackingGame7gameWonEPi
_ZN11HackingGame7gameWonEv
_ZN11HackingGame8render2DEv
_ZN11HackingGameC1Eiiiii
_ZN11HackingGameC2Eiiiii
_ZN11HackingGameD1Ev
_ZN11HackingGameD2Ev
_ZN11LevelScript10lookBehindEv
_ZN11LevelScript11resetCameraEP5Level
_ZN11LevelScript12skipCutsceneEv
_ZN11LevelScript12skipSequenceEv
_ZN11LevelScript13startSequenceEv
_ZN11LevelScript17startSequenceOverEv
_ZN11LevelScript18canSkipCutsceneNowEv
_ZN11LevelScript22resetStartSequenceOverEv
_ZN11LevelScript31setAutoPilotToProgrammedStationEv
_ZN11LevelScript7processEi
_ZN11LevelScript8getEventEv
_ZN11LevelScript8render3DEv
_ZN11LevelScript8setEventEi
_ZN11LevelScriptC1EP5LevelP3HudP5RadarP18TargetFollowCamera
_ZN11LevelScriptC2EP5LevelP3HudP5RadarP18TargetFollowCamera
_ZN11LevelScriptD1Ev
_ZN11LevelScriptD2Ev
_ZN11ModMainMenu10OnKeyPressExx
_ZN11ModMainMenu10OnRender2DEv
_ZN11ModMainMenu10OnRender3DEv
_ZN11ModMainMenu10OnTouchEndEii
_ZN11ModMainMenu10OnTouchEndEiiPv
_ZN11ModMainMenu11OnTouchMoveEii
_ZN11ModMainMenu11OnTouchMoveEiiPv
_ZN11ModMainMenu12OnInitializeEv
_ZN11ModMainMenu12OnKeyReleaseExx
_ZN11ModMainMenu12OnTouchBeginEii
_ZN11ModMainMenu12OnTouchBeginEiiPv
_ZN11ModMainMenu17ShowLoadingScreenEv
_ZN11ModMainMenu8OnResumeEv
_ZN11ModMainMenu8OnUpdateEv
_ZN11ModMainMenu9OnReleaseEv
_ZN11ModMainMenu9OnSuspendEv
_ZN11ModMainMenuC1Ev
_ZN11ModMainMenuC2Ev
_ZN11ModMainMenuD0Ev
_ZN11ModMainMenuD1Ev
_ZN11ModMainMenuD2Ev
_ZN11MovingStars6renderEv
_ZN11MovingStars6updateEiN11AbyssEngine6AEMath6MatrixEbf
_ZN11MovingStars9translateERKN11AbyssEngine6AEMath6VectorE
_ZN11MovingStarsC1Ev
_ZN11MovingStarsC2Ev
_ZN11MovingStarsD1Ev
_ZN11MovingStarsD2Ev
_ZN11SolarSystem10hasNoOwnerEv
_ZN11SolarSystem10setVisibleEb
_ZN11SolarSystem11getStationsEv
_ZN11SolarSystem13getAttackRaceEv
_ZN11SolarSystem13hasPirateBaseEv
_ZN11SolarSystem15getTextureIndexEv
_ZN11SolarSystem16getSecurityLevelEv
_ZN11SolarSystem16getWarpGateIndexEv
_ZN11SolarSystem17getForbiddenGoodsEv
_ZN11SolarSystem17isFullyDiscoveredEv
_ZN11SolarSystem17stationIsInSystemEP7Station
_ZN11SolarSystem17stationIsInSystemEi
_ZN11SolarSystem18hasHiddenBlueprintEv
_ZN11SolarSystem19getStationEnumIndexEi
_ZN11SolarSystem20getWarpGateEnumIndexEv
_ZN11SolarSystem22systemIsInSystemRoutesEi
_ZN11SolarSystem23currentOrbitHasWarpGateEv
_ZN11SolarSystem4getXEv
_ZN11SolarSystem4getYEv
_ZN11SolarSystem4getZEv
_ZN11SolarSystem7getNameEv
_ZN11SolarSystem7getRaceEv
_ZN11SolarSystem8getIndexEv
_ZN11SolarSystem9getRoutesEv
_ZN11SolarSystem9isVisibleEv
_ZN11SolarSystem9setCoordsEii
_ZN11SolarSystemC1EiN11AbyssEngine6StringEibiiiiiiPiP5ArrayIiES5_S5_
_ZN11SolarSystemC2EiN11AbyssEngine6StringEibiiiiiiPiP5ArrayIiES5_S5_
_ZN11SolarSystemD1Ev
_ZN11SolarSystemD2Ev
_ZN11SpaceLounge10OnRender3DEv
_ZN11SpaceLounge10OnRenderBGEv
_ZN11SpaceLounge10OnTouchEndEii
_ZN11SpaceLounge10draw3DShipEv
_ZN11SpaceLounge10drawLoungeEv
_ZN11SpaceLounge10getSoundIdEP5Agent
_ZN11SpaceLounge10onKeyPressEi
_ZN11SpaceLounge11OnTouchMoveEii
_ZN11SpaceLounge12OnTouchBeginEii
_ZN11SpaceLounge13introFinishedEv
_ZN11SpaceLounge15setHangarUpdateEb
_ZN11SpaceLounge17checkLocationModeEv
_ZN11SpaceLounge17hangarNeedsUpdateEv
_ZN11SpaceLounge21updateScreenPositionsEv
_ZN11SpaceLounge23getSpecificSoundForRaceEiib
_ZN11SpaceLounge4drawEv
_ZN11SpaceLounge4initEv
_ZN11SpaceLounge6updateEi
_ZN11SpaceLounge7mapModeEv
_ZN11SpaceLounge7refreshEv
_ZN11SpaceLounge8listModeEv
_ZN11SpaceLounge9startChatEv
_ZN11SpaceLoungeC1Ev
_ZN11SpaceLoungeC2Ev
_ZN11SpaceLoungeD1Ev
_ZN11SpaceLoungeD2Ev
_ZN11TouchButton10OnTouchEndEii
_ZN11TouchButton10resetTouchEv
_ZN11TouchButton10setVisibleEb
_ZN11TouchButton11OnTouchMoveEii
_ZN11TouchButton11getPositionEv
_ZN11TouchButton11setPositionEii
_ZN11TouchButton11setPositionEiih
_ZN11TouchButton12OnTouchBeginEii
_ZN11TouchButton12setSplitTextERKN11AbyssEngine6StringE
_ZN11TouchButton12setTextColorEi
_ZN11TouchButton12setYPositionEi
_ZN11TouchButton13setNumberTextERKN11AbyssEngine6StringE
_ZN11TouchButton13touchedInsideEii
_ZN11TouchButton16setAlwaysPressedEb
_ZN11TouchButton16setPressProgressEf
_ZN11TouchButton18setHalfTransparentEb
_ZN11TouchButton19replaceTextKeepSizeERKN11AbyssEngine6StringE
_ZN11TouchButton21setGamePadButtonImageEj
_ZN11TouchButton25setPressProgressHighlightEb
_ZN11TouchButton4drawEv
_ZN11TouchButton4initERKN11AbyssEngine6StringEjiiiiiihh
_ZN11TouchButton7getTextEv
_ZN11TouchButton7setTextERKN11AbyssEngine6StringE
_ZN11TouchButton8getWidthEv
_ZN11TouchButton9getHeightEv
_ZN11TouchButton9isTouchedEv
_ZN11TouchButton9isVisibleEv
_ZN11TouchButton9translateEii
_ZN11TouchButtonC1ERKN11AbyssEngine6StringEiiih
_ZN11TouchButtonC1ERKN11AbyssEngine6StringEiiiihh
_ZN11TouchButtonC1ERKN11AbyssEngine6StringEiiiihhji
_ZN11TouchButtonC1EiiRKN11AbyssEngine6StringEiih
_ZN11TouchButtonC1Ejiiih
_ZN11TouchButtonC1Ejiiiihh
_ZN11TouchButtonC1Ejjiiih
_ZN11TouchButtonC2ERKN11AbyssEngine6StringEiiih
_ZN11TouchButtonC2ERKN11AbyssEngine6StringEiiiihh
_ZN11TouchButtonC2ERKN11AbyssEngine6StringEiiiihhji
_ZN11TouchButtonC2EiiRKN11AbyssEngine6StringEiih
_ZN11TouchButtonC2Ejiiih
_ZN11TouchButtonC2Ejiiiihh
_ZN11TouchButtonC2Ejjiiih
_ZN11TouchButtonD1Ev
_ZN11TouchButtonD2Ev
_ZN11TouchSlider10OnTouchEndEii
_ZN11TouchSlider11OnTouchMoveEii
_ZN11TouchSlider11setPositionEii
_ZN11TouchSlider12OnTouchBeginEii
_ZN11TouchSlider13setFixedScaleEi
_ZN11TouchSlider13touchedInsideEii
_ZN11TouchSlider18setHalfTransparentEb
_ZN11TouchSlider4drawEv
_ZN11TouchSlider8getValueEv
_ZN11TouchSlider8getWidthEv
_ZN11TouchSlider8setValueEf
_ZN11TouchSliderC1Eiiif
_ZN11TouchSliderC2Eiiif
_ZN11TouchSliderD1Ev
_ZN11TouchSliderD2Ev
_ZN11TractorBeam6renderEv
_ZN11TractorBeam6updateEiP5RadarP5LevelP3Hud
_ZN11TractorBeamC1EP10AEGeometryi
_ZN11TractorBeamC2EP10AEGeometryi
_ZN11TractorBeamD1Ev
_ZN11TractorBeamD2Ev
_ZN12AENormalFile11GetFileSizeEv
_ZN12AENormalFile4ReadEjPv
_ZN12AENormalFile4SkipEj
_ZN12AENormalFile5WriteEjPv
_ZN12AENormalFile7ReleaseEv
_ZN12AENormalFileC1EP13FileInterface
_ZN12AENormalFileC2EP13FileInterface
_ZN12AENormalFileD0Ev
_ZN12AENormalFileD1Ev
_ZN12AENormalFileD2Ev
_ZN12Achievements10getCatchesEv
_ZN12Achievements10incCatchesEv
_ZN12Achievements11countMedalsEv
_ZN12Achievements12getNewMedalsEv
_ZN12Achievements12gotAllMedalsEv
_ZN12Achievements12isEliteMedalEi
_ZN12Achievements13updateCreditsEi
_ZN12Achievements14applyNewMedalsEv
_ZN12Achievements14getPirateKillsEv
_ZN12Achievements14incPirateKillsEv
_ZN12Achievements14resetNewMedalsEv
_ZN12Achievements16checkForNewMedalEP9PlayerEgo
_ZN12Achievements16gotAllGoldMedalsEv
_ZN12Achievements16resetPirateKillsEv
_ZN12Achievements21gotAllSupernovaMedalsEv
_ZN12Achievements28initCheckEquipmentAndWeaponsEv
_ZN12Achievements4initEv
_ZN12Achievements8getKillsEv
_ZN12Achievements8getValueEii
_ZN12Achievements8hasMedalEii
_ZN12Achievements8incKillsEv
_ZN12Achievements8setMedalEii
_ZN12Achievements9getMedalsEv
_ZN12Achievements9setMedalsEPii
_ZN12AchievementsC1Ev
_ZN12AchievementsC2Ev
_ZN12AchievementsD1Ev
_ZN12AchievementsD2Ev
_ZN12ChoiceWindow10OnTouchEndEii
_ZN12ChoiceWindow11OnTouchMoveEii
_ZN12ChoiceWindow12OnTouchBeginEii
_ZN12ChoiceWindow13removeButtonsEv
_ZN12ChoiceWindow13setMiscButtonERKN11AbyssEngine6StringE
_ZN12ChoiceWindow3setERKN11AbyssEngine6StringE
_ZN12ChoiceWindow3setERKN11AbyssEngine6StringES3_
_ZN12ChoiceWindow3setERKN11AbyssEngine6StringES3_b
_ZN12ChoiceWindow3setERKN11AbyssEngine6StringES3_bS3_S3_S3_ii
_ZN12ChoiceWindow3setERKN11AbyssEngine6StringEb
_ZN12ChoiceWindow4drawEv
_ZN12ChoiceWindow4fireEv
_ZN12ChoiceWindow4leftEv
_ZN12ChoiceWindow5rightEv
_ZN12ChoiceWindow6updateEi
_ZN12ChoiceWindow8setMedalEii
_ZN12ChoiceWindow8setWidthEi
_ZN12ChoiceWindow9hasChoiceEv
_ZN12ChoiceWindow9setHeightEi
_ZN12ChoiceWindowC1Ev
_ZN12ChoiceWindowC2Ev
_ZN12ChoiceWindowD1Ev
_ZN12ChoiceWindowD2Ev
_ZN12HangarWindow10OnTouchEndEii
_ZN12HangarWindow10initializeEv
_ZN12HangarWindow10selectItemEP8ListItem
_ZN12HangarWindow11OnTouchMoveEii
_ZN12HangarWindow11demountItemEP4Itemi
_ZN12HangarWindow11hideMessageEv
_ZN12HangarWindow11setSellModeEb
_ZN12HangarWindow11transactionEb
_ZN12HangarWindow12OnTouchBeginEii
_ZN12HangarWindow12readyToCloseEv
_ZN12HangarWindow13getCurrentTabEv
_ZN12HangarWindow13highlightItemEP8ListItem
_ZN12HangarWindow13isInitializedEv
_ZN12HangarWindow14getCurrentItemEv
_ZN12HangarWindow15isInSpecialModeEv
_ZN12HangarWindow20showCreditsBuyWindowEv
_ZN12HangarWindow21showFreeCreditsWindowEv
_ZN12HangarWindow23getRelativeScrollHeightEv
_ZN12HangarWindow24currentItemIsHighlightedEv
_ZN12HangarWindow25autoEquipSecondaryWeaponsEi
_ZN12HangarWindow25getRelativeScrollStartPosEv
_ZN12HangarWindow27refreshCurrentContentHeightEv
_ZN12HangarWindow37refreshCargoAvailabilityForBlueprintsEv
_ZN12HangarWindow6renderEv
_ZN12HangarWindow6updateEi
_ZN12HangarWindow7lastTabE
_ZN12HangarWindow8listModeEv
_ZN12HangarWindow8render3DEv
_ZN12HangarWindow9mountItemEP4Item
_ZN12HangarWindowC1Ev
_ZN12HangarWindowC2Ev
_ZN12HangarWindowD1Ev
_ZN12HangarWindowD2Ev
_ZN12ImageFactory10createCharEbi
_ZN12ImageFactory10createCharEi
_ZN12ImageFactory14getItemImageIdEi
_ZN12ImageFactory6reloadEv
_ZN12ImageFactory8drawCharEP5ArrayIP9ImagePartEiib
_ZN12ImageFactory8drawItemEiii
_ZN12ImageFactory8drawItemEiiii
_ZN12ImageFactory8drawShipEiii
_ZN12ImageFactory8loadCharEPi
_ZN12ImageFactory9loadImageEiii
_ZN12ImageFactoryC1Ev
_ZN12ImageFactoryC2Ev
_ZN12ImageFactoryD1Ev
_ZN12ImageFactoryD2Ev
_ZN12MarqueeImage11setPositionEii
_ZN12MarqueeImage4drawEii
_ZN12MarqueeImage4drawEv
_ZN12MarqueeImage6updateEi
_ZN12MarqueeImage8setSpeedEf
_ZN12MarqueeImageC1Etiiif
_ZN12MarqueeImageC2Etiiif
_ZN12MarqueeImageD1Ev
_ZN12MarqueeImageD2Ev
_ZN12PlayerStatic11getPositionEv
_ZN12PlayerStatic12outerCollideEfff
_ZN12PlayerStatic6renderEv
_ZN12PlayerStatic6updateEi
_ZN12PlayerStatic7collideEfff
_ZN12PlayerStatic9translateERKN11AbyssEngine6AEMath6VectorE
_ZN12PlayerStaticC1EiP10AEGeometryfff
_ZN12PlayerStaticC2EiP10AEGeometryfff
_ZN12PlayerStaticD0Ev
_ZN12PlayerStaticD1Ev
_ZN12PlayerStaticD2Ev
_ZN12PlayerTurret10setScalingEf
_ZN12PlayerTurret11setPositionERKN11AbyssEngine6AEMath6VectorE
_ZN12PlayerTurret12handleTurretEi
_ZN12PlayerTurret12outerCollideEfff
_ZN12PlayerTurret14handleRotationEiP10AEGeometryS1_
_ZN12PlayerTurret14setTurretRangeEi
_ZN12PlayerTurret15handleSentryGunEi
_ZN12PlayerTurret5resetEv
_ZN12PlayerTurret6renderEv
_ZN12PlayerTurret6reviveEv
_ZN12PlayerTurret6updateEi
_ZN12PlayerTurret7collideEfff
_ZN12PlayerTurret7getHostEv
_ZN12PlayerTurret7setHostEP8KIPlayerRKN11AbyssEngine6AEMath6VectorE
_ZN12PlayerTurret8setLevelEP5Level
_ZN12PlayerTurret9pickEnemyEv
_ZN12PlayerTurretC1EiP6PlayerP10AEGeometryfff
_ZN12PlayerTurretC2EiP6PlayerP10AEGeometryfff
_ZN12PlayerTurretD0Ev
_ZN12PlayerTurretD1Ev
_ZN12PlayerTurretD2Ev
_ZN12RadioMessage10getImageIDEv
_ZN12RadioMessage10getSoundIDEv
_ZN12RadioMessage11isTriggeredEv
_ZN12RadioMessage5resetEv
_ZN12RadioMessage6finishEv
_ZN12RadioMessage6isOverEv
_ZN12RadioMessage7triggerEv
_ZN12RadioMessage8setRadioEP5Radio
_ZN12RadioMessage9getTextIDEv
_ZN12RadioMessage9triggeredExP9PlayerEgoP11LevelScript
_ZN12RadioMessageC1EiiP9Objective
_ZN12RadioMessageC1Eiiii
_ZN12RadioMessageC1Eiiiii
_ZN12RadioMessageC2EiiP9Objective
_ZN12RadioMessageC2Eiiii
_ZN12RadioMessageC2Eiiiii
_ZN12RadioMessageD1Ev
_ZN12RadioMessageD2Ev
_ZN12StatusWindow10OnTouchEndEii
_ZN12StatusWindow11OnTouchMoveEii
_ZN12StatusWindow12OnTouchBeginEii
_ZN12StatusWindow16getMedalHintTextEi
_ZN12StatusWindow23getRelativeScrollHeightEv
_ZN12StatusWindow25getRelativeScrollStartPosEv
_ZN12StatusWindow4drawEv
_ZN12StatusWindow6reInitEv
_ZN12StatusWindow6updateEi
_ZN12StatusWindowC1Ev
_ZN12StatusWindowC2Ev
_ZN12StatusWindowD1Ev
_ZN12StatusWindowD2Ev
_ZN12WantedWindow10OnTouchEndEii
_ZN12WantedWindow11OnTouchMoveEii
_ZN12WantedWindow12OnTouchBeginEii
_ZN12WantedWindow12selectWantedEi
_ZN12WantedWindow15setHangarUpdateEb
_ZN12WantedWindow17hangarNeedsUpdateEv
_ZN12WantedWindow19getWantedAtPositionEii
_ZN12WantedWindow23getRelativeScrollHeightEv
_ZN12WantedWindow25getRelativeScrollStartPosEv
_ZN12WantedWindow4drawEv
_ZN12WantedWindow4initEv
_ZN12WantedWindow6updateEi
_ZN12WantedWindow8render3DEv
_ZN12WantedWindowC1Ev
_ZN12WantedWindowC2Ev
_ZN12WantedWindowD1Ev
_ZN12WantedWindowD2Ev
_ZN13AutoPilotList15getTargetStringEv
_ZN13AutoPilotList2upEv
_ZN13AutoPilotList4downEv
_ZN13AutoPilotList4drawEv
_ZN13AutoPilotList4fireEv
_ZN13AutoPilotList5touchEii
_ZN13AutoPilotListC1EP5Level
_ZN13AutoPilotListC2EP5Level
_ZN13AutoPilotListD1Ev
_ZN13AutoPilotListD2Ev
_ZN13LodMeshMerger10setEnabledEib
_ZN13LodMeshMerger13transformMeshEPN11AbyssEngine4MeshERKNS0_6AEMath6MatrixE
_ZN13LodMeshMerger4initEv
_ZN13LodMeshMerger6setLodEia
_ZN13LodMeshMerger6updateEv
_ZN13LodMeshMerger7setMeshEiat
_ZN13LodMeshMerger9setMatrixEiRKN11AbyssEngine6AEMath6MatrixE
_ZN13LodMeshMergerC1EiiPN11AbyssEngine11PaintCanvasEt
_ZN13LodMeshMergerC2EiiPN11AbyssEngine11PaintCanvasEt
_ZN13LodMeshMergerD1Ev
_ZN13LodMeshMergerD2Ev
_ZN13PlayerFighter11removeTrailEv
_ZN13PlayerFighter11setPositionERKN11AbyssEngine6AEMath6VectorE
_ZN13PlayerFighter11setPositionEfff
_ZN13PlayerFighter12hasCrateLostEv
_ZN13PlayerFighter12outerCollideEfff
_ZN13PlayerFighter12setBoostProbEi
_ZN13PlayerFighter12setShipGroupEP10AEGeometryib
_ZN13PlayerFighter13setAIDisabledEb
_ZN13PlayerFighter13setShootErrorEi
_ZN13PlayerFighter14handleCloakingEv
_ZN13PlayerFighter15setMissionCrateEb
_ZN13PlayerFighter16hasCrateCapturedEv
_ZN13PlayerFighter17setExhaustVisibleEb
_ZN13PlayerFighter17setWingmanCommandEiP8KIPlayer
_ZN13PlayerFighter18stationRouteAliensE
_ZN13PlayerFighter19hasMissionCrateLostEv
_ZN13PlayerFighter19setCloakingPossibleEb
_ZN13PlayerFighter23hasMissionCrateCapturedEv
_ZN13PlayerFighter4pushEi
_ZN13PlayerFighter4rollEi
_ZN13PlayerFighter5awakeEv
_ZN13PlayerFighter5cloakEib
_ZN13PlayerFighter5resetEv
_ZN13PlayerFighter5setBVEP14BoundingVolume
_ZN13PlayerFighter5setBVEP5ArrayIP14BoundingVolumeE
_ZN13PlayerFighter6renderEv
_ZN13PlayerFighter6reviveEv
_ZN13PlayerFighter6updateEi
_ZN13PlayerFighter7collideEfff
_ZN13PlayerFighter8initPushERKN11AbyssEngine6AEMath6VectorEi
_ZN13PlayerFighter8setLevelEP5Level
_ZN13PlayerFighter8setSpeedEf
_ZN13PlayerFighter9setRotateEi
_ZN13PlayerFighterC1EiiP6PlayerP10AEGeometryfffb
_ZN13PlayerFighterC2EiiP6PlayerP10AEGeometryfffb
_ZN13PlayerFighterD0Ev
_ZN13PlayerFighterD1Ev
_ZN13PlayerFighterD2Ev
_ZN13PlayerStation10setVisibleEb
_ZN13PlayerStation11getPositionEv
_ZN13PlayerStation11setPositionERKN11AbyssEngine6AEMath6VectorE
_ZN13PlayerStation12outerCollideERKN11AbyssEngine6AEMath6VectorE
_ZN13PlayerStation12outerCollideEfff
_ZN13PlayerStation19getProjectionVectorERKN11AbyssEngine6AEMath6VectorE
_ZN13PlayerStation25projectCollisionOnSurfaceERKN11AbyssEngine6AEMath6VectorE
_ZN13PlayerStation6renderEv
_ZN13PlayerStation6updateEi
_ZN13PlayerStation7collideEfff
_ZN13PlayerStation7getRootEv
_ZN13PlayerStation9translateEfff
_ZN13PlayerStationC1EP7Station
_ZN13PlayerStationC2EP7Station
_ZN13PlayerStationD0Ev
_ZN13PlayerStationD1Ev
_ZN13PlayerStationD2Ev
_ZN13RecordHandler10readRecordEi
_ZN13RecordHandler10readWantedEj
_ZN13RecordHandler10writeAgentEP5Agentj
_ZN13RecordHandler11loadOptionsEv
_ZN13RecordHandler11readMissionEj
_ZN13RecordHandler11saveOptionsEv
_ZN13RecordHandler11writeWantedEP6Wantedj
_ZN13RecordHandler12writeMissionEP7Missionj
_ZN13RecordHandler14readAllRecordsEv
_ZN13RecordHandler15notEnoughMemoryEv
_ZN13RecordHandler15recordStoreReadEi
_ZN13RecordHandler16addHashToOptionsEv
_ZN13RecordHandler16recordStoreWriteEi
_ZN13RecordHandler19loadResolutionValueEf
_ZN13RecordHandler21convertSDVersionSavesEv
_ZN13RecordHandler21readAllPreviewRecordsEv
_ZN13RecordHandler21readRecordAsByteArrayEPPaib
_ZN13RecordHandler21recoverSDVersionSavesEv
_ZN13RecordHandler22recordStoreReadPreviewEi
_ZN13RecordHandler22writeByteArrayAsRecordEPaiib
_ZN13RecordHandler23recordStoreWritePreviewEP10GameRecordi
_ZN13RecordHandler23recordStoreWritePreviewEi
_ZN13RecordHandler26readOptionsFileAsByteArrayEPPa
_ZN13RecordHandler27writeByteArrayAsOptionsFileEPai
_ZN13RecordHandler36changeSaveDirectoryToBackupDirectoryEv
_ZN13RecordHandler7addHashEi
_ZN13RecordHandler9checkHashEj
_ZN13RecordHandler9readAgentEj
_ZN13RecordHandlerC1Ev
_ZN13RecordHandlerC2Ev
_ZN13RecordHandlerD1Ev
_ZN13RecordHandlerD2Ev
_ZN14BoundingSphere12outerCollideEfff
_ZN14BoundingSphere18getCollisionNormalERKN11AbyssEngine6AEMath6VectorE
_ZN14BoundingSphere25projectCollisionOnSurfaceERKN11AbyssEngine6AEMath6VectorE
_ZN14BoundingSphere6updateEfff
_ZN14BoundingSphere7collideEfff
_ZN14BoundingSphereC1Efffffff
_ZN14BoundingSphereC2Efffffff
_ZN14BoundingSphereD1Ev
_ZN14BoundingSphereD2Ev
_ZN14BoundingVolume10setVolumesEP5ArrayIPS_E
_ZN14BoundingVolume12outerCollideEfff
_ZN14BoundingVolume18getCollisionNormalERKN11AbyssEngine6AEMath6VectorE
_ZN14BoundingVolume19getProjectionVectorERKN11AbyssEngine6AEMath6VectorE
_ZN14BoundingVolume31staticProjectCollisionOnSurfaceERKN11AbyssEngine6AEMath6VectorEP5ArrayIPS_E
_ZN14BoundingVolume6updateEfff
_ZN14BoundingVolume7collideEfff
_ZN14BoundingVolume9setVolumeEPS_
_ZN14BoundingVolumeC2Effffff
_ZN14BoundingVolumeD1Ev
_ZN14BoundingVolumeD2Ev
_ZN14DialogueWindow10OnTouchEndEii
_ZN14DialogueWindow10isLastPageEv
_ZN14DialogueWindow11OnTouchMoveEii
_ZN14DialogueWindow11isFirstPageEv
_ZN14DialogueWindow11loadContentEv
_ZN14DialogueWindow12OnTouchBeginEii
_ZN14DialogueWindow12previousPageEv
_ZN14DialogueWindow18hasSuccessDialogueEi
_ZN14DialogueWindow19hasBriefingDialogueEi
_ZN14DialogueWindow3setEP7Missionii
_ZN14DialogueWindow4drawEv
_ZN14DialogueWindow4initEv
_ZN14DialogueWindow51pickGermanGenericTextBecauseWeSaved100EurosWithThatEiP5Agent
_ZN14DialogueWindow6lengthEv
_ZN14DialogueWindow6updateEi
_ZN14DialogueWindow7getModeEv
_ZN14DialogueWindow8hasLevelEv
_ZN14DialogueWindow8nextPageEv
_ZN14DialogueWindow8setLevelEP5Level
_ZN14DialogueWindowC1EP7MissionP5Leveli
_ZN14DialogueWindowC1EPN11AbyssEngine6StringES2_Pi
_ZN14DialogueWindowC1Ev
_ZN14DialogueWindowC2EP7MissionP5Leveli
_ZN14DialogueWindowC2EPN11AbyssEngine6StringES2_Pi
_ZN14DialogueWindowC2Ev
_ZN14DialogueWindowD1Ev
_ZN14DialogueWindowD2Ev
_ZN14ListItemWindow10OnTouchEndEii
_ZN14ListItemWindow11OnTouchMoveEii
_ZN14ListItemWindow11shows3DShipEv
_ZN14ListItemWindow12OnTouchBeginEii
_ZN14ListItemWindow3setEP8ListItemjjjjb
_ZN14ListItemWindow4drawEv
_ZN14ListItemWindow6renderEv
_ZN14ListItemWindow6updateEi
_ZN14ListItemWindowC1Ev
_ZN14ListItemWindowC2Ev
_ZN14ListItemWindowD1Ev
_ZN14ListItemWindowD2Ev
_ZN14MissionsWindow10OnTouchEndEii
_ZN14MissionsWindow11OnTouchMoveEii
_ZN14MissionsWindow12OnTouchBeginEii
_ZN14MissionsWindow15setHangarUpdateEb
_ZN14MissionsWindow17hangarNeedsUpdateEv
_ZN14MissionsWindow4drawEv
_ZN14MissionsWindow4initEv
_ZN14MissionsWindow6updateEi
_ZN14MissionsWindow8render3DEv
_ZN14MissionsWindowC1Ev
_ZN14MissionsWindowC2Ev
_ZN14MissionsWindowD1Ev
_ZN14MissionsWindowD2Ev
_ZN14PendingProductC1EP9BluePrint
_ZN14PendingProductC1EiN11AbyssEngine6StringEii
_ZN14PendingProductC2EP9BluePrint
_ZN14PendingProductC2EiN11AbyssEngine6StringEii
_ZN14PendingProductD1Ev
_ZN14PendingProductD2Ev
_ZN14PlayerAsteroid10getQualityEv
_ZN14PlayerAsteroid10getScalingEv
_ZN14PlayerAsteroid11getPositionEv
_ZN14PlayerAsteroid11setPositionERKN11AbyssEngine6AEMath6VectorE
_ZN14PlayerAsteroid11tmp_vector2E
_ZN14PlayerAsteroid12outerCollideEN11AbyssEngine6AEMath6VectorE
_ZN14PlayerAsteroid12outerCollideEfff
_ZN14PlayerAsteroid14asteroidCenterE
_ZN14PlayerAsteroid16asteroidDistanceE
_ZN14PlayerAsteroid16getQualityStringEv
_ZN14PlayerAsteroid16setAsteroidIndexEi
_ZN14PlayerAsteroid17setAsteroidCenterEN11AbyssEngine6AEMath6VectorE
_ZN14PlayerAsteroid18setRotationEnabledEb
_ZN14PlayerAsteroid19getProjectionVectorERKN11AbyssEngine6AEMath6VectorE
_ZN14PlayerAsteroid20getQualityFrameIndexEv
_ZN14PlayerAsteroid3posE
_ZN14PlayerAsteroid4pushEi
_ZN14PlayerAsteroid6renderEv
_ZN14PlayerAsteroid6updateEi
_ZN14PlayerAsteroid7collideEfff
_ZN14PlayerAsteroid8emitTimeE
_ZN14PlayerAsteroid8initPushERKN11AbyssEngine6AEMath6VectorEi
_ZN14PlayerAsteroid9isMinableEv
_ZN14PlayerAsteroid9translateERKN11AbyssEngine6AEMath6VectorE
_ZN14PlayerAsteroidC1EiP10AEGeometryiiRKN11AbyssEngine6AEMath6VectorEfi
_ZN14PlayerAsteroidC2EiP10AEGeometryiiRKN11AbyssEngine6AEMath6VectorEfi
_ZN14PlayerAsteroidD0Ev
_ZN14PlayerAsteroidD1Ev
_ZN14PlayerAsteroidD2Ev
_ZN14PlayerCreature12getEnduranceEv
_ZN14PlayerCreature12getItemIndexEv
_ZN14PlayerCreature12outerCollideEfff
_ZN14PlayerCreature15getMaxEnduranceEv
_ZN14PlayerCreature4hookEi
_ZN14PlayerCreature4rageEi
_ZN14PlayerCreature5resetEv
_ZN14PlayerCreature6renderEv
_ZN14PlayerCreature6unhookEv
_ZN14PlayerCreature6updateEi
_ZN14PlayerCreature7collideEfff
_ZN14PlayerCreature8calmDownEv
_ZN14PlayerCreature8isCaughtEv
_ZN14PlayerCreature8isHookedEv
_ZN14PlayerCreature9getWeightEv
_ZN14PlayerCreatureC1EiiP6PlayerP10AEGeometryfff
_ZN14PlayerCreatureC2EiiP6PlayerP10AEGeometryfff
_ZN14PlayerCreatureD0Ev
_ZN14PlayerCreatureD1Ev
_ZN14PlayerCreatureD2Ev
_ZN14PlayerGasCloud11getPositionEv
_ZN14PlayerGasCloud11hasExplodedEv
_ZN14PlayerGasCloud11setPositionERKN11AbyssEngine6AEMath6VectorE
_ZN14PlayerGasCloud12isSparkAliveEi
_ZN14PlayerGasCloud15setSparkInSightEib
_ZN14PlayerGasCloud6renderEv
_ZN14PlayerGasCloud6updateEi
_ZN14PlayerGasCloud7explodeEiN11AbyssEngine6AEMath6VectorEf
_ZN14PlayerGasCloud9getSparksEv
_ZN14PlayerGasCloud9translateERKN11AbyssEngine6AEMath6VectorE
_ZN14PlayerGasCloudC1EiP21ParticleSystemManagerP10AEGeometryRKN11AbyssEngine6AEMath6VectorE
_ZN14PlayerGasCloudC2EiP21ParticleSystemManagerP10AEGeometryRKN11AbyssEngine6AEMath6VectorE
_ZN14PlayerGasCloudD0Ev
_ZN14PlayerGasCloudD1Ev
_ZN14PlayerGasCloudD2Ev
_ZN14PlayerJumpgate10timeToJumpEv
_ZN14PlayerJumpgate11setPositionEfff
_ZN14PlayerJumpgate14animationEndedEv
_ZN14PlayerJumpgate22addJumpAnimationHandleEj
_ZN14PlayerJumpgate6updateEi
_ZN14PlayerJumpgate8activateEv
_ZN14PlayerJumpgateC1EiP10AEGeometryfffb
_ZN14PlayerJumpgateC2EiP10AEGeometryfffb
_ZN14PlayerJumpgateD0Ev
_ZN14PlayerJumpgateD1Ev
_ZN14PlayerJumpgateD2Ev
_ZN14PlayerWormHole11getPositionEv
_ZN14PlayerWormHole11isShrinkingEv
_ZN14PlayerWormHole11setPositionEfff
_ZN14PlayerWormHole15freeMissionLockEv
_ZN14PlayerWormHole4openEv
_ZN14PlayerWormHole5resetEb
_ZN14PlayerWormHole6renderEv
_ZN14PlayerWormHole6updateEi
_ZN14PlayerWormHoleC1EiP10AEGeometryfffb
_ZN14PlayerWormHoleC2EiP10AEGeometryfffb
_ZN14PlayerWormHoleD0Ev
_ZN14PlayerWormHoleD1Ev
_ZN14PlayerWormHoleD2Ev
_ZN14ScrollTouchBox10OnTouchEndEii
_ZN14ScrollTouchBox11OnTouchMoveEii
_ZN14ScrollTouchBox11setPositionEii
_ZN14ScrollTouchBox12OnTouchBeginEii
_ZN14ScrollTouchBox12setYPositionEi
_ZN14ScrollTouchBox13touchIsInsideEii
_ZN14ScrollTouchBox15setTextCenteredEb
_ZN14ScrollTouchBox23getRelativeScrollHeightEv
_ZN14ScrollTouchBox25getRelativeScrollStartPosEv
_ZN14ScrollTouchBox4drawEv
_ZN14ScrollTouchBox6updateEi
_ZN14ScrollTouchBox7setTextEN11AbyssEngine6StringE
_ZN14ScrollTouchBox7setTextEN11AbyssEngine6StringEi
_ZN14ScrollTouchBoxC1Eiiii
_ZN14ScrollTouchBoxC2Eiiii
_ZN14ScrollTouchBoxD1Ev
_ZN14ScrollTouchBoxD2Ev
_ZN15IParticleSystem10emitManualEN11AbyssEngine6AEMath6VectorEiPKS2_f
_ZN15IParticleSystem10enableEmitEb
_ZN15IParticleSystem12enableRenderEb
_ZN15IParticleSystem12enableUpdateEb
_ZN15IParticleSystem14setParticleSetEN16ParticleSettings11ParticleSetE
_ZN15IParticleSystem16getParticleCountEv
_ZN15IParticleSystem16interpolateColorEiRfS0_S0_S0_
_ZN15IParticleSystem19calcEmitterVelocityEi
_ZN15IParticleSystem19setParticleSetIndexEh
_ZN15IParticleSystem20resetEmitterVelocityEv
_ZN15IParticleSystem4emitEi
_ZN15IParticleSystem6updateEi
_ZN15IParticleSystem9rotateUVsEPfiS0_
_ZN15IParticleSystem9setMatrixEPKN11AbyssEngine6AEMath6MatrixE
_ZN15IParticleSystemC2EPN11AbyssEngine11PaintCanvasEPKNS0_6AEMath6MatrixERK5ArrayIN16ParticleSettings11ParticleSetEEbb
_ZN15IParticleSystemD2Ev
_ZN15MenuTouchWindow10OnTouchEndEiiPv
_ZN15MenuTouchWindow11OnTouchMoveEiiPv
_ZN15MenuTouchWindow11callDlcMenuEv
_ZN15MenuTouchWindow11hideMessageEv
_ZN15MenuTouchWindow12OnTouchBeginEiiPv
_ZN15MenuTouchWindow13startValkyrieEv
_ZN15MenuTouchWindow14startSupernovaEv
_ZN15MenuTouchWindow15inCinematicModeEv
_ZN15MenuTouchWindow15setCutsceneModeEb
_ZN15MenuTouchWindow16drawLoadSaveMenuEb
_ZN15MenuTouchWindow16isShowingMessageEv
_ZN15MenuTouchWindow17isInMissionScreenEv
_ZN15MenuTouchWindow18isMakingScreenshotEv
_ZN15MenuTouchWindow18loadPreviewRecordsEv
_ZN15MenuTouchWindow19createRecordButtonsEb
_ZN15MenuTouchWindow20setSkipButtonVisibleEb
_ZN15MenuTouchWindow20showSupernovaMessageEv
_ZN15MenuTouchWindow23getRelativeScrollHeightEv
_ZN15MenuTouchWindow23startSupernovaChallengeEv
_ZN15MenuTouchWindow25getRelativeScrollStartPosEv
_ZN15MenuTouchWindow4drawEv
_ZN15MenuTouchWindow6updateEi
_ZN15MenuTouchWindow8loadGameEi
_ZN15MenuTouchWindow8render3DEv
_ZN15MenuTouchWindow8saveGameEi
_ZN15MenuTouchWindow9addButtonEiN11AbyssEngine6StringEiP5ArrayIP11TouchButtonEi
_ZN15MenuTouchWindow9startGOF2Ev
_ZN15MenuTouchWindowC1Ei
_ZN15MenuTouchWindowC2Ei
_ZN15MenuTouchWindowD1Ev
_ZN15MenuTouchWindowD2Ev
_ZN15PlayerStaticFar12outerCollideEN11AbyssEngine6AEMath6VectorE
_ZN15PlayerStaticFar12outerCollideEfff
_ZN15PlayerStaticFar12setYRotationEi
_ZN15PlayerStaticFar15getInitPositionEN11AbyssEngine6AEMath6VectorE
_ZN15PlayerStaticFar19getProjectionVectorERKN11AbyssEngine6AEMath6VectorE
_ZN15PlayerStaticFar25projectCollisionOnSurfaceERKN11AbyssEngine6AEMath6VectorE
_ZN15PlayerStaticFar6renderEv
_ZN15PlayerStaticFar6updateEi
_ZN15PlayerStaticFar7collideEfff
_ZN15PlayerStaticFarC1EiP10AEGeometryfff
_ZN15PlayerStaticFarC2EiP10AEGeometryfff
_ZN15PlayerStaticFarD0Ev
_ZN15PlayerStaticFarD1Ev
_ZN15PlayerStaticFarD2Ev
_ZN16ParticleSettings11InterpolateENS_11ParticleSetES0_fS0_
_ZN16ParticleSettings11multiplyAllEf
_ZN16ParticleSettings16particleMultiplyE
_ZN16ParticleSettings4initEv
_ZN16ParticleSettings8pCounterE
_ZN16ParticleSettingsC1Ev
_ZN16ParticleSettingsC2Ev
_ZN16ParticleSettingsD2Ev
_ZN16ParticleSettingsUt_aSERKS0_
_ZN16SimpleMeshMergerC1ERK5ArrayItES0_IN11AbyssEngine6AEMath6MatrixEEPNS4_11PaintCanvasEt
_ZN16SimpleMeshMergerC2ERK5ArrayItES0_IN11AbyssEngine6AEMath6MatrixEEPNS4_11PaintCanvasEt
_ZN16SystemPathFinder13constructPathEP4Node
_ZN16SystemPathFinder13getSystemPathEP5ArrayIP11SolarSystemEii
_ZN16SystemPathFinder15getJumpDistanceEP5ArrayIP11SolarSystemEii
_ZN16SystemPathFinder6searchEP4NodeS1_
_ZN16SystemPathFinder8containsEP5ArrayIP4NodeES2_
_ZN16SystemPathFinderC1Ev
_ZN16SystemPathFinderC2Ev
_ZN16SystemPathFinderD1Ev
_ZN16SystemPathFinderD2Ev
_ZN17PlayerFixedObject11getPositionEv
_ZN17PlayerFixedObject11moveForwardEi
_ZN17PlayerFixedObject11setPositionERKN11AbyssEngine6AEMath6VectorE
_ZN17PlayerFixedObject11setPositionEfff
_ZN17PlayerFixedObject12outerCollideEN11AbyssEngine6AEMath6VectorE
_ZN17PlayerFixedObject12outerCollideEfff
_ZN17PlayerFixedObject14getDockingTypeEv
_ZN17PlayerFixedObject14getTransportIDEv
_ZN17PlayerFixedObject14setDockingTypeEi
_ZN17PlayerFixedObject14setTransportIDEi
_ZN17PlayerFixedObject16setWreckedMeshIdEi
_ZN17PlayerFixedObject17setExhaustVisibleEb
_ZN17PlayerFixedObject19getProjectionVectorERKN11AbyssEngine6AEMath6VectorE
_ZN17PlayerFixedObject20setDeadButSelectableEv
_ZN17PlayerFixedObject25projectCollisionOnSurfaceERKN11AbyssEngine6AEMath6VectorE
_ZN17PlayerFixedObject5resetEv
_ZN17PlayerFixedObject5setBVEP14BoundingVolume
_ZN17PlayerFixedObject5setBVEP5ArrayIP14BoundingVolumeE
_ZN17PlayerFixedObject6renderEv
_ZN17PlayerFixedObject6updateEi
_ZN17PlayerFixedObject7collideEfff
_ZN17PlayerFixedObject7getNameEv
_ZN17PlayerFixedObject7setNameEN11AbyssEngine6StringE
_ZN17PlayerFixedObject8hideShipEv
_ZN17PlayerFixedObject9setMovingEb
_ZN17PlayerFixedObject9translateERKN11AbyssEngine6AEMath6VectorE
_ZN17PlayerFixedObjectC1EiiP6PlayerP10AEGeometryfff
_ZN17PlayerFixedObjectC2EiiP6PlayerP10AEGeometryfff
_ZN17PlayerFixedObjectD0Ev
_ZN17PlayerFixedObjectD1Ev
_ZN17PlayerFixedObjectD2Ev
_ZN17ScrollTouchWindow10OnTouchEndEii
_ZN17ScrollTouchWindow10drawTextBGEv
_ZN17ScrollTouchWindow11OnTouchMoveEii
_ZN17ScrollTouchWindow12OnTouchBeginEii
_ZN17ScrollTouchWindow12setYPositionEi
_ZN17ScrollTouchWindow15setTextCenteredEb
_ZN17ScrollTouchWindow4drawEv
_ZN17ScrollTouchWindow6updateEi
_ZN17ScrollTouchWindow7setTextEN11AbyssEngine6StringES1_
_ZN17ScrollTouchWindow7setTextEN11AbyssEngine6StringES1_i
_ZN17ScrollTouchWindowC1Eiiii
_ZN17ScrollTouchWindowC1Eiiiib
_ZN17ScrollTouchWindowC2Eiiii
_ZN17ScrollTouchWindowC2Eiiiib
_ZN17ScrollTouchWindowD1Ev
_ZN17ScrollTouchWindowD2Ev
_ZN18ParticleSystemMesh11setParticleERKN11AbyssEngine6AEMath6VectorEfjffffbffS4_
_ZN18ParticleSystemMesh11setParticleERKN11AbyssEngine6AEMath6VectorEfjffffbffS4_b
_ZN18ParticleSystemMesh11setQuadEdgeERKN11AbyssEngine6AEMath6VectorEiS4_
_ZN18ParticleSystemMesh12getQuadCountEv
_ZN18ParticleSystemMesh12updateSingleEif
_ZN18ParticleSystemMesh15startNewSectionEv
_ZN18ParticleSystemMesh16updateTrailEdgesEii
_ZN18ParticleSystemMesh16updateUsualEdgesEii
_ZN18ParticleSystemMesh17updateSingleColorEi
_ZN18ParticleSystemMesh20wasNewSectionStartedEv
_ZN18ParticleSystemMesh26finishCurrentTrailParticleEN16ParticleSettings11ParticleSetEiRKN11AbyssEngine6AEMath6VectorES6_
_ZN18ParticleSystemMesh4emitEi
_ZN18ParticleSystemMesh4initEjt
_ZN18ParticleSystemMesh5incIdEv
_ZN18ParticleSystemMesh5resetEv
_ZN18ParticleSystemMesh6renderEPN11AbyssEngine11PaintCanvasEj
_ZN18ParticleSystemMesh6renderEPN11AbyssEngine11PaintCanvasEjjNS0_9BlendModeE
_ZN18ParticleSystemMesh7releaseEv
_ZN18ParticleSystemMesh9emitTrailEi
_ZN18ParticleSystemMesh9getPrevIdEi
_ZN18ParticleSystemMeshC1EPN11AbyssEngine11PaintCanvasEPKNS0_6AEMath6MatrixERK5ArrayIN16ParticleSettings11ParticleSetEEbb
_ZN18ParticleSystemMeshC2EPN11AbyssEngine11PaintCanvasEPKNS0_6AEMath6MatrixERK5ArrayIN16ParticleSettings11ParticleSetEEbb
_ZN18ParticleSystemMeshD1Ev
_ZN18ParticleSystemMeshD2Ev
_ZN18TargetFollowCamera10zoomTargetEf
_ZN18TargetFollowCamera11getPositionEv
_ZN18TargetFollowCamera11setPositionERKN11AbyssEngine6AEMath6VectorE
_ZN18TargetFollowCamera11setPositionEfff
_ZN18TargetFollowCamera12getCamOffsetEv
_ZN18TargetFollowCamera12setCamOffsetERKN11AbyssEngine6AEMath6VectorE
_ZN18TargetFollowCamera12setLookAtCamEb
_ZN18TargetFollowCamera14isInLookAtModeEv
_ZN18TargetFollowCamera15getTargetOffsetEv
_ZN18TargetFollowCamera15setShipHandlingEf
_ZN18TargetFollowCamera15setTargetOffsetERKN11AbyssEngine6AEMath6VectorE
_ZN18TargetFollowCamera17resetShipHandlingEv
_ZN18TargetFollowCamera17translateNoUpdateEfff
_ZN18TargetFollowCamera18rotateAroundTargetEfff
_ZN18TargetFollowCamera18setBoostPercentageEfi
_ZN18TargetFollowCamera18setFastForwardModeEb
_ZN18TargetFollowCamera18useTargetsUpVectorEb
_ZN18TargetFollowCamera19isInFastForwardModeEv
_ZN18TargetFollowCamera19setRumblePercentageEfi
_ZN18TargetFollowCamera20calculateCoefficentsEf
_ZN18TargetFollowCamera20enableFirstPersonCamEb
_ZN18TargetFollowCamera20setFirstPersonMatrixERN11AbyssEngine6AEMath6MatrixE
_ZN18TargetFollowCamera23setRotationAroundTargetEb
_ZN18TargetFollowCamera25hideShipForFirstPersonCamEv
_ZN18TargetFollowCamera3hitEv
_ZN18TargetFollowCamera4rollEf
_ZN18TargetFollowCamera55aproximateCooefficientsForAproximationOfDampingFunktionEfRdS0_S0_S0_S0_
_ZN18TargetFollowCamera6updateEi
_ZN18TargetFollowCamera7setRollEf
_ZN18TargetFollowCamera8getLocalEv
_ZN18TargetFollowCamera8hitSmallEv
_ZN18TargetFollowCamera8setFixedEb
_ZN18TargetFollowCamera8setLocalEN11AbyssEngine6AEMath6MatrixE
_ZN18TargetFollowCamera9getTargetEv
_ZN18TargetFollowCamera9setActiveEb
_ZN18TargetFollowCamera9setLockedEb
_ZN18TargetFollowCamera9setTargetEP10AEGeometry
_ZN18TargetFollowCamera9translateEfff
_ZN18TargetFollowCameraC1EjP10AEGeometryN11AbyssEngine6AEMath6VectorES4_
_ZN18TargetFollowCameraC2EjP10AEGeometryN11AbyssEngine6AEMath6VectorES4_
_ZN18TargetFollowCameraD1Ev
_ZN18TargetFollowCameraD2Ev
_ZN19ParticleSettingsRef10assertInitE
_ZN19ParticleSettingsRef10initializeEv
_ZN19ParticleSettingsRef3curE
_ZN19ParticleSettingsRef4initE
_ZN20FileInterfaceAndroid10FileDeleteEN11AbyssEngine6StringE
_ZN20FileInterfaceAndroid10OpenAppendEN11AbyssEngine6StringEibj
_ZN20FileInterfaceAndroid10methodReadE
_ZN20FileInterfaceAndroid11GetFileSizeEv
_ZN20FileInterfaceAndroid11fileCounterE
_ZN20FileInterfaceAndroid11methodWriteE
_ZN20FileInterfaceAndroid12FileEnumInitEPcb
_ZN20FileInterfaceAndroid12GetDirPreFixEv
_ZN20FileInterfaceAndroid13GetAppRootDirEv
_ZN20FileInterfaceAndroid13SetAppRootDirEPv
_ZN20FileInterfaceAndroid15FileGetNextEnumERN11AbyssEngine6StringE
_ZN20FileInterfaceAndroid15SetZipDirectoryEPv
_ZN20FileInterfaceAndroid15methodCloseReadE
_ZN20FileInterfaceAndroid15methodFileExistE
_ZN20FileInterfaceAndroid16SetSaveDirectoryEN11AbyssEngine6StringE
_ZN20FileInterfaceAndroid16methodCloseWriteE
_ZN20FileInterfaceAndroid18GetDeviceFreeSpaceEv
_ZN20FileInterfaceAndroid18ResetSaveDirectoryEv
_ZN20FileInterfaceAndroid3envE
_ZN20FileInterfaceAndroid4ReadEjPv
_ZN20FileInterfaceAndroid4SeekEj
_ZN20FileInterfaceAndroid5CloseEv
_ZN20FileInterfaceAndroid5WriteEjPKv
_ZN20FileInterfaceAndroid5clazzE
_ZN20FileInterfaceAndroid6OutputEPc
_ZN20FileInterfaceAndroid7contextE
_ZN20FileInterfaceAndroid8OpenReadEN11AbyssEngine6StringEibiij
_ZN20FileInterfaceAndroid9FileExistEN11AbyssEngine6StringE
_ZN20FileInterfaceAndroid9OpenWriteEN11AbyssEngine6StringEibj
_ZN20FileInterfaceAndroidC1EP7__sFILEb
_ZN20FileInterfaceAndroidC1EP8_jobjectb
_ZN20FileInterfaceAndroidC1EP8zip_filebiii
_ZN20FileInterfaceAndroidC1Ev
_ZN20FileInterfaceAndroidC2EP7__sFILEb
_ZN20FileInterfaceAndroidC2EP8_jobjectb
_ZN20FileInterfaceAndroidC2EP8zip_filebiii
_ZN20FileInterfaceAndroidC2Ev
_ZN20FileInterfaceAndroidD0Ev
_ZN20FileInterfaceAndroidD1Ev
_ZN20FileInterfaceAndroidD2Ev
_ZN20ParticleSystemSprite11setParticleERKN11AbyssEngine6AEMath6VectorEfjffffbffS4_
_ZN20ParticleSystemSprite12getQuadCountEv
_ZN20ParticleSystemSprite12updateSingleEif
_ZN20ParticleSystemSprite22updateAreaExitParticleEif
_ZN20ParticleSystemSprite4initEjt
_ZN20ParticleSystemSprite5resetEv
_ZN20ParticleSystemSprite6enableEb
_ZN20ParticleSystemSprite6renderEPN11AbyssEngine11PaintCanvasEj
_ZN20ParticleSystemSprite6renderEPN11AbyssEngine11PaintCanvasEjjNS0_9BlendModeE
_ZN20ParticleSystemSprite7releaseEv
_ZN20ParticleSystemSprite8setAlphaEijf
_ZN20ParticleSystemSpriteC1EPN11AbyssEngine11PaintCanvasEPKNS0_6AEMath6MatrixERK5ArrayIN16ParticleSettings11ParticleSetEEbb
_ZN20ParticleSystemSpriteC2EPN11AbyssEngine11PaintCanvasEPKNS0_6AEMath6MatrixERK5ArrayIN16ParticleSettings11ParticleSetEEbb
_ZN20ParticleSystemSpriteD1Ev
_ZN20ParticleSystemSpriteD2Ev
_ZN21ParticleSystemManager10emitManualEiRKN11AbyssEngine6AEMath6VectorEiS4_f
_ZN21ParticleSystemManager10emitManualEiRKN11AbyssEngine6AEMath6VectorEif
_ZN21ParticleSystemManager11initSpritesEv
_ZN21ParticleSystemManager11resetSystemEi
_ZN21ParticleSystemManager12cameraToggleEN16ParticleSettings9CameraSetE
_ZN21ParticleSystemManager12renderMeshesEv
_ZN21ParticleSystemManager12renderPost3dEv
_ZN21ParticleSystemManager13addMeshSystemEPKN11AbyssEngine6AEMath6MatrixERK5ArrayIN16ParticleSettings11ParticleSetEEb
_ZN21ParticleSystemManager13renderSpritesEv
_ZN21ParticleSystemManager14releaseSpritesEv
_ZN21ParticleSystemManager15addSpriteSystemEPKN11AbyssEngine6AEMath6MatrixERK5ArrayIN16ParticleSettings11ParticleSetEEb
_ZN21ParticleSystemManager15systemSetMatrixEiPKN11AbyssEngine6AEMath6MatrixE
_ZN21ParticleSystemManager16enableSystemEmitEib
_ZN21ParticleSystemManager18enableSystemRenderEib
_ZN21ParticleSystemManager18enableSystemUpdateEib
_ZN21ParticleSystemManager19setParticleSetBySetEiN16ParticleSettings11ParticleSetE
_ZN21ParticleSystemManager21setParticleSetByIndexEih
_ZN21ParticleSystemManager4initEv
_ZN21ParticleSystemManager5resetEv
_ZN21ParticleSystemManager6updateEx
_ZN21ParticleSystemManager7releaseEv
_ZN21ParticleSystemManager8initMeshEv
_ZN21ParticleSystemManager8render3dEv
_ZN21ParticleSystemManager9addSystemEPKN11AbyssEngine6AEMath6MatrixEN16ParticleSettings11ParticleSetEb
_ZN21ParticleSystemManager9constructEv
_ZN21ParticleSystemManagerC1EPN11AbyssEngine11PaintCanvasEN16ParticleSettings9CameraSetEtNS0_9BlendModeEbtS5_b
_ZN21ParticleSystemManagerC1EPN11AbyssEngine11PaintCanvasEN16ParticleSettings9CameraSetEtbtb
_ZN21ParticleSystemManagerC2EPN11AbyssEngine11PaintCanvasEN16ParticleSettings9CameraSetEtNS0_9BlendModeEbtS5_b
_ZN21ParticleSystemManagerC2EPN11AbyssEngine11PaintCanvasEN16ParticleSettings9CameraSetEtbtb
_ZN21ParticleSystemManagerD1Ev
_ZN21ParticleSystemManagerD2Ev
_ZN3Gun10getEnemiesEv
_ZN3Gun10setEnemiesEP5ArrayIP6PlayerE
_ZN3Gun11isPlayerGunEv
_ZN3Gun12getMagnitudeEv
_ZN3Gun12setFriendGunEb
_ZN3Gun12setMagnitudeEi
_ZN3Gun12setPlayerGunEb
_ZN3Gun16removeAllEnemiesEv
_ZN3Gun17setLevelCollisionEb
_ZN3Gun18calcLevelCollisionEv
_ZN3Gun22calcCharacterCollisionEv
_ZN3Gun27setErrorMagnitudePercentageEi
_ZN3Gun5shootEN11AbyssEngine6AEMath6MatrixEib
_ZN3Gun6igniteEv
_ZN3Gun6renderEv
_ZN3Gun6updateEi
_ZN3Gun7shootAtEN11AbyssEngine6AEMath6MatrixEiP6Playerb
_ZN3Gun8setEnemyEP6Player
_ZN3Gun8setIndexEi
_ZN3Gun8setLevelEP5Level
_ZN3Gun9setImpactEP6Sparks
_ZN3Gun9setOffsetEPN11AbyssEngine6AEMath6VectorE
_ZN3Gun9setOffsetEii
_ZN3Gun9translateERKN11AbyssEngine6AEMath6VectorE
_ZN3GunC1EiiiiiifN11AbyssEngine6AEMath6VectorES2_
_ZN3GunC2EiiiiiifN11AbyssEngine6AEMath6VectorES2_
_ZN3GunD1Ev
_ZN3GunD2Ev
_ZN3Hud10catchCargoEiibbbbb
_ZN3Hud10clearQueueEv
_ZN3Hud10getAnalogXEv
_ZN3Hud10getAnalogYEv
_ZN3Hud10setVisibleEb
_ZN3Hud10touchBeginEjjPv
_ZN3Hud11RADAR_WIDTHE
_ZN3Hud11drawCreditsEv
_ZN3Hud11firePressedEv
_ZN3Hud11initHudMenuEiP5Level
_ZN3Hud11updateQueueEi
_ZN3Hud12RADAR_HEIGHTE
_ZN3Hud12closeHudMenuEv
_ZN3Hud13drawBigNumberEiiib
_ZN3Hud13hudEventMedalEii
_ZN3Hud14drawEventQueueEv
_ZN3Hud14drawTitleImageEb
_ZN3Hud14releaseAllKeysEv
_ZN3Hud14touchedElementEjj
_ZN3Hud14wingmanCommandE
_ZN3Hud15addToEventQueueEP8ListItem
_ZN3Hud15drawEventStringEN11AbyssEngine6StringEb
_ZN3Hud15drawPauseButtonEv
_ZN3Hud15jumpMapSelectedEv
_ZN3Hud15setTimeExtenderEbbbb
_ZN3Hud16resetAnalogStickEv
_ZN3Hud18setAutofireEnabledEb
_ZN3Hud18setJumpMapSelectedEb
_ZN3Hud19isHackingGameActiveEv
_ZN3Hud20drawOrbitInformationEv
_ZN3Hud20sameHudEventAsBeforeEN11AbyssEngine6StringE
_ZN3Hud20setHackingGameActiveEb
_ZN3Hud21enableFireForTutorialEb
_ZN3Hud22drawChallengeModeScoreEi
_ZN3Hud23checkIfQuickMenuIsEmptyEv
_ZN3Hud25setCurrentSecondaryWeaponEP4Item
_ZN3Hud27updateSecondaryWeaponStringEv
_ZN3Hud29sameHudEventAsBeforeAggregateEN11AbyssEngine6StringE
_ZN3Hud4drawExxP9PlayerEgobjj
_ZN3Hud4initEv
_ZN3Hud8drawMenuEi
_ZN3Hud8hudEventEiP9PlayerEgoi
_ZN3Hud8touchEndEjjPv
_ZN3Hud9cargoFullEv
_ZN3Hud9hudActionEiP5LevelP5Radar
_ZN3Hud9playerHitEv
_ZN3Hud9touchMoveEjjPv
_ZN3HudC1Ev
_ZN3HudC2Ev
_ZN3HudD1Ev
_ZN3HudD2Ev
_ZN3NFC13showMoreGamesEv
_ZN3NFC14interface_pathE
_ZN3NFC15iap_buy_dlc_vipEv
_ZN3NFC17openPrivacyPolicyEv
_ZN3NFC18openTermsOfServiceEv
_ZN3NFC20iap_buy_dlc_valkyrieEv
_ZN3NFC21free_credits_rateGameEv
_ZN3NFC21iap_buy_dlc_supernovaEv
_ZN3NFC21iap_restore_purchasesEv
_ZN3NFC22iap_buy_dlc_kaamo_clubEv
_ZN3NFC23iap_buy_credits_100_000Ev
_ZN3NFC23iap_buy_credits_300_000Ev
_ZN3NFC24iap_buy_dlc_full_packageEv
_ZN3NFC25iap_buy_credits_1_000_000Ev
_ZN3NFC25iap_buy_credits_3_000_000Ev
_ZN3NFC26iap_buy_credits_10_000_000Ev
_ZN3NFC28free_credits_followOnTwitterEv
_ZN3NFC31free_credits_likeGOF2OnFacebookEv
_ZN3NFC35free_credits_likeFishlabsOnFacebookEv
_ZN3NFC38free_credits_subscribeToYoutubeChannelEv
_ZN3NFC5isPadEv
_ZN3NFC8getWidthEv
_ZN3NFC8rateGameEv
_ZN3NFC9getHeightEv
_ZN3NFCC1Ev
_ZN3NFCC2Ev
_ZN4Item11adjustPriceEP7Station
_ZN4Item11getMaxPriceEv
_ZN4Item11getMinPriceEv
_ZN4Item11getTecLevelEv
_ZN4Item11setMaxPriceEi
_ZN4Item11setMinPriceEi
_ZN4Item11transactionEbib
_ZN4Item12changeAmountEi
_ZN4Item12checkCreditsEv
_ZN4Item12combineItemsEP5ArrayIPS_ES3_
_ZN4Item12extractItemsEP5ArrayIPS_Eb
_ZN4Item12getAttributeEi
_ZN4Item12getOccurenceEv
_ZN4Item12getPriceRateEv
_ZN4Item12isUnsaleableEv
_ZN4Item13getAttributesEv
_ZN4Item13getQuantitiesEv
_ZN4Item13getTotalPriceEv
_ZN4Item13setUnsaleableEb
_ZN4Item14getIngredientsEv
_ZN4Item14getSinglePriceEv
_ZN4Item15checkCargoSpaceEv
_ZN4Item16getStationAmountEv
_ZN4Item16setStationAmountEi
_ZN4Item17combineDuplicatesEP5ArrayIPS_E
_ZN4Item17getMaxPriceSystemEv
_ZN4Item17getMinPriceSystemEv
_ZN4Item18getBlueprintAmountEv
_ZN4Item18setBlueprintAmountEi
_ZN4Item19changeStationAmountEi
_ZN4Item20transactionBlueprintEbi
_ZN4Item21changeBlueprintAmountEi
_ZN4Item21getMissingIngredientsEv
_ZN4Item21setMissingIngredientsEi
_ZN4Item27canBeInstalledMultipleTimesEv
_ZN4Item4initEv
_ZN4Item5cloneEv
_ZN4Item6equalsEPS_
_ZN4Item7getSortEv
_ZN4Item7getTypeEv
_ZN4Item8getIndexEv
_ZN4Item8isInListEPS_P5ArrayIS0_E
_ZN4Item8isInListEiP5ArrayIPS_E
_ZN4Item8isInListEiiP5ArrayIPS_E
_ZN4Item8isWeaponEv
_ZN4Item8makeItemEi
_ZN4Item8makeItemEii
_ZN4Item8makeItemEv
_ZN4Item8mixItemsEP5ArrayIPS_ES3_
_ZN4Item8setPriceEi
_ZN4Item9fabricateEPS_P5ArrayIS0_Ei
_ZN4Item9getAmountEv
_ZN4Item9setAmountEi
_ZN4ItemC1EP5ArrayIiES2_S2_
_ZN4ItemC2EP5ArrayIiES2_S2_
_ZN4ItemD1Ev
_ZN4ItemD2Ev
_ZN4NodeC1Ei
_ZN4NodeC2Ei
_ZN4NodeD1Ev
_ZN4NodeD2Ev
_ZN4Ship10changeLoadEi
_ZN4Ship10getAgilityEv
_ZN4Ship10getMaxLoadEv
_ZN4Ship10getSlotPosEP4Item
_ZN4Ship10hasBoosterEv
_ZN4Ship11adjustPriceEv
_ZN4Ship11getBaseLoadEv
_ZN4Ship11getHandlingEv
_ZN4Ship11removeCargoEP4Item
_ZN4Ship11removeCargoEi
_ZN4Ship11removeCargoEii
_ZN4Ship12addEquipmentEP4Item
_ZN4Ship12freeAllSlotsEv
_ZN4Ship12getBoostTimeEv
_ZN4Ship12getCargoPlusEv
_ZN4Ship12getEquipmentEi
_ZN4Ship12getEquipmentEv
_ZN4Ship12getFirePowerEv
_ZN4Ship12getFreeSlotsEi
_ZN4Ship12getFreeSpaceEv
_ZN4Ship12getRadarTypeEv
_ZN4Ship12getSlotTypesEv
_ZN4Ship12getUsedSlotsEi
_ZN4Ship12hasCargoTypeEi
_ZN4Ship12hasEquipmentEii
_ZN4Ship12hasJumpDriveEv
_ZN4Ship12priceDeclineEv
_ZN4Ship12refreshValueEv
_ZN4Ship12replaceCargoEP5ArrayIP4ItemE
_ZN4Ship12setEquipmentEP4Item
_ZN4Ship12setEquipmentEP4Itemi
_ZN4Ship12setEquipmentEP5ArrayIP4ItemE
_ZN4Ship13getBoostDelayEv
_ZN4Ship13getBoostSpeedEv
_ZN4Ship13getCargoValueEv
_ZN4Ship13getCombinedHPEv
_ZN4Ship13getMaxArmorHPEv
_ZN4Ship13getModdedLoadEv
_ZN4Ship13getRepairTypeEv
_ZN4Ship13slotAvailableEi
_ZN4Ship14getCompressionEv
_ZN4Ship14getCurrentLoadEv
_ZN4Ship14getMaxShieldHPEv
_ZN4Ship14getShieldRegenEv
_ZN4Ship14removeAllCargoEv
_ZN4Ship14spaceAvailableEi
_ZN4Ship15getDamageFactorEv
_ZN4Ship15hasModInstalledEi
_ZN4Ship15removeEquipmentEP4Item
_ZN4Ship16getMaxPassengersEv
_ZN4Ship16getSignatureRaceEv
_ZN4Ship16hasVolatileGoodsEv
_ZN4Ship16replaceEquipmentEP5ArrayIP4ItemE
_ZN4Ship17getEquipmentValueEv
_ZN4Ship17getFireRateFactorEv
_ZN4Ship18getHandlingForShopEv
_ZN4Ship18hasCloakIntegratedEv
_ZN4Ship18hasEmergencySystemEv
_ZN4Ship19getUnmoddedHandlingEv
_ZN4Ship19hasSecondaryWeaponsEv
_ZN4Ship20getCurrentWeaponSlotEv
_ZN4Ship20setCurrentWeaponSlotEi
_ZN4Ship22getNumAddedDeviceSlotsEv
_ZN4Ship22hasJumpDriveIntegratedEv
_ZN4Ship23getFirstEquipmentOfSortEi
_ZN4Ship5cloneEv
_ZN4Ship6addModEi
_ZN4Ship6equalsEPS_
_ZN4Ship7getModsEv
_ZN4Ship7getRaceEv
_ZN4Ship7setModsEP5ArrayIiE
_ZN4Ship7setRaceEi
_ZN4Ship8addCargoEP4Item
_ZN4Ship8addCargoEP5ArrayIP4ItemE
_ZN4Ship8freeSlotEP4Item
_ZN4Ship8freeSlotEP4Itemi
_ZN4Ship8getCargoEi
_ZN4Ship8getCargoEv
_ZN4Ship8getIndexEv
_ZN4Ship8getMaxHPEv
_ZN4Ship8getPriceEv
_ZN4Ship8getSlotsEi
_ZN4Ship8getValueEv
_ZN4Ship8hasCargoEii
_ZN4Ship8hasCloakEv
_ZN4Ship8makeShipEi
_ZN4Ship8setCargoEP5ArrayIP4ItemE
_ZN4Ship8setPriceEi
_ZN4Ship9getBaseHPEv
_ZN4ShipC1Eiiiiiiiif
_ZN4ShipC2Eiiiiiiiif
_ZN4ShipD1Ev
_ZN4ShipD2Ev
_ZN5Agent10getMissionEv
_ZN5Agent10getStationEv
_ZN5Agent10setMissionEP7Mission
_ZN5Agent12isStoryAgentEv
_ZN5Agent13getImagePartsEv
_ZN5Agent13getSystemNameEv
_ZN5Agent13setImagePartsEPi
_ZN5Agent13setSystemNameEN11AbyssEngine6StringE
_ZN5Agent14getStationNameEv
_ZN5Agent14getWingmanNameEi
_ZN5Agent14isGenericAgentEv
_ZN5Agent14setStationNameEN11AbyssEngine6StringE
_ZN5Agent15getSellModIndexEv
_ZN5Agent15getWingmanNamesEv
_ZN5Agent15setSellItemDataEiii
_ZN5Agent16getMissionStringEv
_ZN5Agent16getSellItemIndexEv
_ZN5Agent16getSellItemPriceEv
_ZN5Agent16hasAcceptedOfferEv
_ZN5Agent16setMissionStringEN11AbyssEngine6StringE
_ZN5Agent16setOfferAcceptedEb
_ZN5Agent16setSellItemPriceEi
_ZN5Agent18getSellSystemIndexEv
_ZN5Agent19getSellItemQuantityEv
_ZN5Agent20giveRewardAtNextChatEb
_ZN5Agent21getModPricePercentageEv
_ZN5Agent21getSellBlueprintIndexEv
_ZN5Agent21setWingmanFriendNamesEP5ArrayIPN11AbyssEngine6StringEE
_ZN5Agent22getWingmanFriendsCountEv
_ZN5Agent6isMaleEv
_ZN5Agent7getNameEv
_ZN5Agent7getRaceEv
_ZN5Agent7getTypeEv
_ZN5Agent7isKnownEv
_ZN5Agent8getCostsEv
_ZN5Agent8getEventEv
_ZN5Agent8getIndexEv
_ZN5Agent8getOfferEv
_ZN5Agent8setCostsEi
_ZN5Agent8setEventEi
_ZN5Agent8setOfferEi
_ZN5Agent9getSystemEv
_ZN5Agent9hasRewardEv
_ZN5Agent9nextEventEv
_ZN5AgentC1EiN11AbyssEngine6StringEiiibiiii
_ZN5AgentC2EiN11AbyssEngine6StringEiiibiiii
_ZN5AgentD1Ev
_ZN5AgentD2Ev
_ZN5ArrayIN11AbyssEngine6AEMath6MatrixEEC2Ev
_ZN5ArrayIN11AbyssEngine6AEMath6MatrixEED2Ev
_ZN5ArrayIN11AbyssEngine6AEMath6VectorEEC2Ev
_ZN5ArrayIN11AbyssEngine6AEMath6VectorEED2Ev
_ZN5ArrayIN16ParticleSettings11ParticleSetEEC2Ev
_ZN5ArrayIN16ParticleSettings11ParticleSetEED2Ev
_ZN5ArrayIP10AEGeometryEC2Ev
_ZN5ArrayIP10AEGeometryED2Ev
_ZN5ArrayIP10GameRecordEC2Ev
_ZN5ArrayIP10GameRecordED2Ev
_ZN5ArrayIP10RepairBeamEC2Ev
_ZN5ArrayIP10RepairBeamED2Ev
_ZN5ArrayIP10SpacePointEC2Ev
_ZN5ArrayIP10SpacePointED2Ev
_ZN5ArrayIP11AbstractGunEC2Ev
_ZN5ArrayIP11AbstractGunED2Ev
_ZN5ArrayIP11SolarSystemEC2Ev
_ZN5ArrayIP11SolarSystemED2Ev
_ZN5ArrayIP11TouchButtonEC2Ev
_ZN5ArrayIP11TouchButtonED2Ev
_ZN5ArrayIP11TouchSliderEC2Ev
_ZN5ArrayIP11TouchSliderED2Ev
_ZN5ArrayIP12RadioMessageEC2Ev
_ZN5ArrayIP12RadioMessageED2Ev
_ZN5ArrayIP14AELowLevelFileEC2Ev
_ZN5ArrayIP14AELowLevelFileED2Ev
_ZN5ArrayIP14AEPakFileEntryEC2Ev
_ZN5ArrayIP14AEPakFileEntryED2Ev
_ZN5ArrayIP14BoundingVolumeEC2Ev
_ZN5ArrayIP14BoundingVolumeED2Ev
_ZN5ArrayIP14PendingProductEC2Ev
_ZN5ArrayIP14PendingProductED2Ev
_ZN5ArrayIP18ParticleSystemMeshEC2Ev
_ZN5ArrayIP18ParticleSystemMeshED2Ev
_ZN5ArrayIP20ParticleSystemSpriteEC2Ev
_ZN5ArrayIP20ParticleSystemSpriteED2Ev
_ZN5ArrayIP3GunEC2Ev
_ZN5ArrayIP3GunED2Ev
_ZN5ArrayIP4ItemEC2Ev
_ZN5ArrayIP4ItemED2Ev
_ZN5ArrayIP4NodeEC2Ev
_ZN5ArrayIP4NodeED2Ev
_ZN5ArrayIP4ShipEC2Ev
_ZN5ArrayIP4ShipED2Ev
_ZN5ArrayIP5AgentEC2Ev
_ZN5ArrayIP5AgentED2Ev
_ZN5ArrayIP6PlayerEC2Ev
_ZN5ArrayIP6PlayerED2Ev
_ZN5ArrayIP6WantedEC2Ev
_ZN5ArrayIP6WantedED2Ev
_ZN5ArrayIP7MissionEC2Ev
_ZN5ArrayIP7StationEC2Ev
_ZN5ArrayIP7StationED2Ev
_ZN5ArrayIP8KIPlayerEC2Ev
_ZN5ArrayIP8KIPlayerED2Ev
_ZN5ArrayIP8ListItemEC2Ev
_ZN5ArrayIP8ListItemED2Ev
_ZN5ArrayIP8NewsItemEC2Ev
_ZN5ArrayIP8NewsItemED2Ev
_ZN5ArrayIP8WaypointEC2Ev
_ZN5ArrayIP8WaypointED2Ev
_ZN5ArrayIP9BluePrintEC2Ev
_ZN5ArrayIP9BluePrintED2Ev
_ZN5ArrayIP9ExplosionEC2Ev
_ZN5ArrayIP9ExplosionED2Ev
_ZN5ArrayIP9ImagePartEC2Ev
_ZN5ArrayIP9ImagePartED2Ev
_ZN5ArrayIP9ObjectiveEC2Ev
_ZN5ArrayIP9ObjectiveED2Ev
_ZN5ArrayIPN11AbyssEngine11TokenStructEEC2Ev
_ZN5ArrayIPN11AbyssEngine11TokenStructEED2Ev
_ZN5ArrayIPN11AbyssEngine12SpriteSystemEEC2Ev
_ZN5ArrayIPN11AbyssEngine12SpriteSystemEED2Ev
_ZN5ArrayIPN11AbyssEngine15AELoadedTextureEEC2Ev
_ZN5ArrayIPN11AbyssEngine15AELoadedTextureEED2Ev
_ZN5ArrayIPN11AbyssEngine16AESoundInterfaceEEC2Ev
_ZN5ArrayIPN11AbyssEngine16AESoundInterfaceEED2Ev
_ZN5ArrayIPN11AbyssEngine16ShaderBaseStructEEC2Ev
_ZN5ArrayIPN11AbyssEngine16ShaderBaseStructEED2Ev
_ZN5ArrayIPN11AbyssEngine18IApplicationModuleEEC2Ev
_ZN5ArrayIPN11AbyssEngine18IApplicationModuleEED2Ev
_ZN5ArrayIPN11AbyssEngine4MeshEEC2Ev
_ZN5ArrayIPN11AbyssEngine4MeshEED2Ev
_ZN5ArrayIPN11AbyssEngine6AEMath6VectorEEC2Ev
_ZN5ArrayIPN11AbyssEngine6AEMath6VectorEED2Ev
_ZN5ArrayIPN11AbyssEngine6CameraEEC2Ev
_ZN5ArrayIPN11AbyssEngine6CameraEED2Ev
_ZN5ArrayIPN11AbyssEngine6StringEEC2Ev
_ZN5ArrayIPN11AbyssEngine6StringEED2Ev
_ZN5ArrayIPN11AbyssEngine7Image2DEEC2Ev
_ZN5ArrayIPN11AbyssEngine7Image2DEED2Ev
_ZN5ArrayIPN11AbyssEngine7KeyCodeEEC2Ev
_ZN5ArrayIPN11AbyssEngine7KeyCodeEED2Ev
_ZN5ArrayIPN11AbyssEngine8KeyFrameEEC2Ev
_ZN5ArrayIPN11AbyssEngine8KeyFrameEED2Ev
_ZN5ArrayIPN11AbyssEngine8MaterialEEC2Ev
_ZN5ArrayIPN11AbyssEngine8MaterialEED2Ev
_ZN5ArrayIPN11AbyssEngine8ResourceEEC2Ev
_ZN5ArrayIPN11AbyssEngine8ResourceEED2Ev
_ZN5ArrayIPN11AbyssEngine9CheatCodeEEC2Ev
_ZN5ArrayIPN11AbyssEngine9CheatCodeEED2Ev
_ZN5ArrayIPN11AbyssEngine9ImageFontEEC2Ev
_ZN5ArrayIPN11AbyssEngine9ImageFontEED2Ev
_ZN5ArrayIPN11AbyssEngine9TransformEEC2Ev
_ZN5ArrayIPN11AbyssEngine9TransformEED2Ev
_ZN5ArrayIPS_IP3GunEEC2Ev
_ZN5ArrayIPS_IP3GunEED2Ev
_ZN5ArrayIPS_IP8ListItemEEC2Ev
_ZN5ArrayIPS_IP8ListItemEED2Ev
_ZN5ArrayIPS_IP9ImagePartEEC2Ev
_ZN5ArrayIPS_IP9ImagePartEED2Ev
_ZN5ArrayIPS_IPN11AbyssEngine6AEMath6VectorEEEC2Ev
_ZN5ArrayIPS_IPN11AbyssEngine6AEMath6VectorEEED2Ev
_ZN5ArrayIPS_IPN11AbyssEngine6StringEEEC2Ev
_ZN5ArrayIPS_IPN11AbyssEngine6StringEEED2Ev
_ZN5ArrayIPaEC2Ev
_ZN5ArrayIPiEC2Ev
_ZN5ArrayIPvEC2Ev
_ZN5ArrayIbEC2Ev
_ZN5ArrayIbED2Ev
_ZN5ArrayIfEC2Ev
_ZN5ArrayIfED2Ev
_ZN5ArrayIhEC2Ev
_ZN5ArrayIiEC2Ev
_ZN5ArrayIiED2Ev
_ZN5ArrayIjEC2Ev
_ZN5ArrayIjED2Ev
_ZN5ArrayItEC2Ev
_ZN5ArrayItED2Ev
_ZN5ArrayIxEC2Ev
_ZN5ArrayIxED2Ev
_ZN5Level10applyKillsEv
_ZN5Level10assignGunsEv
_ZN5Level10createShipEiiiP8Waypointbb
_ZN5Level10friendDiedEv
_ZN5Level10getEnemiesEv
_ZN5Level10killWantedEi
_ZN5Level11createRouteEi
_ZN5Level11createSceneEv
_ZN5Level11createSpaceEv
_ZN5Level11flashScreenEi
_ZN5Level11getMessagesEv
_ZN5Level11renderPauseEx
_ZN5Level11updateOrbitEi
_ZN5Level11wingmanDiedERKN11AbyssEngine6StringE
_ZN5Level12asteroidDiedEv
_ZN5Level12attackWantedEi
_ZN5Level12createPlayerEv
_ZN5Level12getAsteroidsEv
_ZN5Level12getEnemyGunsEv
_ZN5Level12getGasCloudsEv
_ZN5Level12getLandmarksEv
_ZN5Level12getTimeLimitEv
_ZN5Level13checkGameOverEi
_ZN5Level13collideStreamEN11AbyssEngine6AEMath6VectorE
_ZN5Level13createMissionEv
_ZN5Level13createWingmenEv
_ZN5Level13doInstantJumpE
_ZN5Level13getEnemyRouteEv
_ZN5Level13getPlayerGunsEv
_ZN5Level13getStarSystemEv
_ZN5Level13uncoverWantedEi
_ZN5Level14checkObjectiveEi
_ZN5Level14collideStationEN11AbyssEngine6AEMath6VectorE
_ZN5Level14connectPlayersEv
_ZN5Level14getEnemiesLeftEv
_ZN5Level14getFriendRouteEv
_ZN5Level14getFriendsLeftEv
_ZN5Level14getMiningPlantEv
_ZN5Level14getPlayerRouteEv
_ZN5Level14hasMiningPlantEv
_ZN5Level14setPlayerRouteEP5Route
_ZN5Level15alarmAllFriendsEib
_ZN5Level15createAsteroidsEv
_ZN5Level15createGasCloudsEv
_ZN5Level16almostKillWantedEi
_ZN5Level16createSentryGunsEv
_ZN5Level16getAsteroidsLeftEv
_ZN5Level16getDockingTargetEi
_ZN5Level16removeObjectivesEv
_ZN5Level16setInitStreamOutEv
_ZN5Level16stealFriendCargoEv
_ZN5Level17enableMovingStarsEb
_ZN5Level17friendTurnedEnemyEi
_ZN5Level17getBoundingVolumeEiP10AEGeometry
_ZN5Level17programmedStationE
_ZN5Level18createRadioMessageEii
_ZN5Level18createStaticObjectEP8Waypointib
_ZN5Level18getNumDeliveredOreEv
_ZN5Level18incNumDeliveredOreEi
_ZN5Level18updateMissionOrbitEi
_ZN5Level19createRadioMessagesEi
_ZN5Level19createStaticObjectsEv
_ZN5Level19getAsteroidWaypointEv
_ZN5Level19initParticleSystemsEv
_ZN5Level19pirateStationActionEb
_ZN5Level1bE
_ZN5Level1gE
_ZN5Level1rE
_ZN5Level20comingFromAlienWorldE
_ZN5Level20createFighterTurretsEv
_ZN5Level20friendCargoWasStolenEv
_ZN5Level20getNumDockingTargetsEv
_ZN5Level20setPlayerEngineColorEs
_ZN5Level20switchSkyboxForIntroEv
_ZN5Level20updateAlienAttackersEi
_ZN5Level21createCampaignMissionEv
_ZN5Level21enableParticleEffectsEbb
_ZN5Level21initStreamOutPositionE
_ZN5Level21updateAsteroidClusterEv
_ZN5Level22energyCellsForNextJumpE
_ZN5Level23isInAsteroidCenterRangeEN11AbyssEngine6AEMath6VectorE
_ZN5Level25getNumDeliveredPassengersEv
_ZN5Level25incNumDeliveredPassengersEi
_ZN5Level29lastMissionFreighterHitpointsE
_ZN5Level32switchSkyboxForSupernovaReversalEv
_ZN5Level34initStreamOutPositionAfterCutsceneE
_ZN5Level3i_aE
_ZN5Level3i_bE
_ZN5Level3i_gE
_ZN5Level3i_rE
_ZN5Level4initEv
_ZN5Level5b_minE
_ZN5Level5g_minE
_ZN5Level5r_minE
_ZN5Level5resetEv
_ZN5Level6renderEi
_ZN5Level6updateExb
_ZN5Level7collideEN11AbyssEngine6AEMath6VectorEb
_ZN5Level8junkDiedEv
_ZN5Level8render2DEv
_ZN5Level8renderBGEi
_ZN5Level9createGunEiiiiiiii
_ZN5Level9enableFogEb
_ZN5Level9enemyDiedEib
_ZN5Level9getPlayerEv
_ZN5LevelC1Ei
_ZN5LevelC2Ei
_ZN5LevelD1Ev
_ZN5LevelD2Ev
_ZN5MGame10OnKeyPressExx
_ZN5MGame10OnRender2DEv
_ZN5MGame10OnRender3DEv
_ZN5MGame10OnTouchEndEii
_ZN5MGame10OnTouchEndEiiPv
_ZN5MGame11OnTouchMoveEii
_ZN5MGame11OnTouchMoveEiiPv
_ZN5MGame11pauseSoundsEv
_ZN5MGame12OnInitializeEv
_ZN5MGame12OnKeyReleaseExx
_ZN5MGame12OnTouchBeginEii
_ZN5MGame12OnTouchBeginEiiPv
_ZN5MGame12resumeSoundsEv
_ZN5MGame12successCheckEv
_ZN5MGame12switchCameraEi
_ZN5MGame13dialogueEventEv
_ZN5MGame13gameOverCheckEv
_ZN5MGame14UseKhadorDriveEv
_ZN5MGame14showLiteScreenEv
_ZN5MGame14startJumpSceneEv
_ZN5MGame15freeCamTouchEndEiiPv
_ZN5MGame15updateJumpSceneEv
_ZN5MGame16freeCamTouchMoveEiiPv
_ZN5MGame16maneuverTouchEndEiiPv
_ZN5MGame16setCinematicModeEb
_ZN5MGame17ShowLoadingScreenEv
_ZN5MGame17freeCamTouchBeginEiiPv
_ZN5MGame17maneuverTouchMoveEiiPv
_ZN5MGame18maneuverTouchBeginEiiPv
_ZN5MGame19handleAccelerometerEv
_ZN5MGame22startChargingJumpDriveEv
_ZN5MGame5pauseEv
_ZN5MGame5resetEv
_ZN5MGame8OnResumeEv
_ZN5MGame8OnUpdateEv
_ZN5MGame8useCloakEv
_ZN5MGame9OnReleaseEv
_ZN5MGame9OnSuspendEv
_ZN5MGame9dockEventEii
_ZN5MGame9nextCamIdEi
_ZN5MGameC1Ev
_ZN5MGameC2Ev
_ZN5MGameD0Ev
_ZN5MGameD1Ev
_ZN5MGameD2Ev
_ZN5Radar10drawTargetE
_ZN5Radar10hasScannerEv
_ZN5Radar12calcDistanceEffffff
_ZN5Radar13stationLockedEv
_ZN5Radar14getLockedEnemyEv
_ZN5Radar14unlockAsteroidEv
_ZN5Radar15drawCurrentLockEP3Hud
_ZN5Radar15isPlasmaInRangeEv
_ZN5Radar17elipsoidIntersectEiiN11AbyssEngine6AEMath6VectorE
_ZN5Radar17getLockedAsteroidEv
_ZN5Radar17getLockedGasCloudEv
_ZN5Radar18getPlanetDockIndexEv
_ZN5Radar19getTurretScopeWidthEv
_ZN5Radar4drawEP6PlayerP3Hudi
_ZN5Radar6updateEN11AbyssEngine6AEMath6VectorE
_ZN5Radar6updateEP8KIPlayer
_ZN5RadarC1EP5Level
_ZN5RadarC2EP5Level
_ZN5RadarD1Ev
_ZN5RadarD2Ev
_ZN5Radio10getMessageEi
_ZN5Radio11setMessagesEP5ArrayIP12RadioMessageE
_ZN5Radio16isShowingMessageEv
_ZN5Radio16lastMessageShownEv
_ZN5Radio17setCurrentMessageEP12RadioMessage
_ZN5Radio4drawExP9PlayerEgoP11LevelScript
_ZN5Radio6updateElP9PlayerEgoP11LevelScript
_ZN5RadioC1Ev
_ZN5RadioC2Ev
_ZN5RadioD1Ev
_ZN5RadioD2Ev
_ZN5Route10getCurrentEv
_ZN5Route11getWaypointEi
_ZN5Route11getWaypointEv
_ZN5Route12setNewCoordsEN11AbyssEngine6AEMath6VectorE
_ZN5Route13getExactCloneEv
_ZN5Route13reachWaypointEi
_ZN5Route14getDockingTimeEi
_ZN5Route14getDockingTimeEv
_ZN5Route15getLastWaypointEv
_ZN5Route15waypointDefinedEv
_ZN5Route16getDockingTargetEi
_ZN5Route16getDockingTargetEv
_ZN5Route5cloneEv
_ZN5Route5resetEv
_ZN5Route6lengthEv
_ZN5Route6updateERKN11AbyssEngine6AEMath6VectorE
_ZN5Route6updateEfff
_ZN5Route7setLoopEb
_ZN5Route9translateERKN11AbyssEngine6AEMath6VectorE
_ZN5RouteC1EPiP5ArrayIP8KIPlayerES0_i
_ZN5RouteC1EPii
_ZN5RouteC2EPiP5ArrayIP8KIPlayerES0_i
_ZN5RouteC2EPii
_ZN5RouteD1Ev
_ZN5RouteD2Ev
_ZN5Trail10changeTypeEi
_ZN5Trail5resetEN11AbyssEngine6AEMath6VectorE
_ZN5Trail6renderEv
_ZN5Trail6updateERKN11AbyssEngine6AEMath6MatrixES4_RKNS1_6VectorE
_ZN5Trail6updateERKN11AbyssEngine6AEMath6VectorES4_
_ZN5Trail6updateEffffff
_ZN5Trail8setWidthEi
_ZN5Trail9translateERKN11AbyssEngine6AEMath6VectorE
_ZN5TrailC1Eii
_ZN5TrailC2Eii
_ZN5TrailD1Ev
_ZN5TrailD2Ev
_ZN6AEFile10FileDeleteERKN11AbyssEngine6StringE
_ZN6AEFile10OpenAppendEPKcPj
_ZN6AEFile10OpenAppendERN11AbyssEngine6StringEPj
_ZN6AEFile11GetFileSizeEj
_ZN6AEFile11crc32_ccittERKN11AbyssEngine6StringE
_ZN6AEFile11findPakFileERKN11AbyssEngine6StringE
_ZN6AEFile12ReadSwitchedERN11AbyssEngine6StringEj
_ZN6AEFile12ReadSwitchedERij
_ZN6AEFile12ReadSwitchedERsj
_ZN6AEFile12ReadSwitchedERtj
_ZN6AEFile12SetInterfaceEP13FileInterface
_ZN6AEFile13GetAppRootDirEv
_ZN6AEFile13SetAppRootDirEPv
_ZN6AEFile13fileInterfaceE
_ZN6AEFile15RegisterPakFileEN11AbyssEngine6StringE
_ZN6AEFile15SetZipDirectoryEPv
_ZN6AEFile15collectPakFilesERKN11AbyssEngine6StringE
_ZN6AEFile16SetSaveDirectoryEN11AbyssEngine6StringE
_ZN6AEFile16pakFileEntryListE
_ZN6AEFile18GetDeviceFreeSpaceEv
_ZN6AEFile18ResetSaveDirectoryEv
_ZN6AEFile20sortPakFileEntryListEv
_ZN6AEFile22collectFilesInPakFilesERN11AbyssEngine6StringE
_ZN6AEFile4OpenERN11AbyssEngine6StringENS_12FileOpenTypeEPj
_ZN6AEFile4ReadERN11AbyssEngine6StringEjb
_ZN6AEFile4ReadERaj
_ZN6AEFile4ReadERbj
_ZN6AEFile4ReadERcj
_ZN6AEFile4ReadERfj
_ZN6AEFile4ReadERhj
_ZN6AEFile4ReadERij
_ZN6AEFile4ReadERjj
_ZN6AEFile4ReadERsj
_ZN6AEFile4ReadERtj
_ZN6AEFile4ReadERxj
_ZN6AEFile4ReadEjPvj
_ZN6AEFile4SkipEjj
_ZN6AEFile4fileE
_ZN6AEFile5CloseEj
_ZN6AEFile5WriteERKN11AbyssEngine6StringEjb
_ZN6AEFile5WriteEaj
_ZN6AEFile5WriteEbj
_ZN6AEFile5WriteEcj
_ZN6AEFile5WriteEfj
_ZN6AEFile5WriteEhj
_ZN6AEFile5WriteEij
_ZN6AEFile5WriteEjPvj
_ZN6AEFile5WriteEjj
_ZN6AEFile5WriteEsj
_ZN6AEFile5WriteEtj
_ZN6AEFile5WriteExj
_ZN6AEFile7ReleaseEv
_ZN6AEFile7appRootE
_ZN6AEFile8OpenReadEPKcPj
_ZN6AEFile8OpenReadERN11AbyssEngine6StringEPj
_ZN6AEFile9FileExistERKN11AbyssEngine6StringE
_ZN6AEFile9OpenWriteEPKcPj
_ZN6AEFile9OpenWriteERN11AbyssEngine6StringEPj
_ZN6Galaxy10getStationEi
_ZN6Galaxy10getSystemsEv
_ZN6Galaxy10getVisitedEv
_ZN6Galaxy10setVisitedEPbi
_ZN6Galaxy12visitStationEi
_ZN6Galaxy15distancePercentEiiii
_ZN6Galaxy18invDistancePercentEiiii
_ZN6Galaxy22getPlasmaProbabilitiesEP7Station
_ZN6Galaxy24getAsteroidProbabilitiesEP7Station
_ZN6Galaxy5resetEv
_ZN6Galaxy8distanceEP11SolarSystemS1_
_ZN6Galaxy9getSystemEi
_ZN6GalaxyC1Ev
_ZN6GalaxyC2Ev
_ZN6GalaxyD1Ev
_ZN6GalaxyD2Ev
_ZN6Layout10OnTouchEndEii
_ZN6Layout10drawFooterEbb
_ZN6Layout10drawFooterEv
_ZN6Layout10drawHeaderEN11AbyssEngine6StringE
_ZN6Layout10drawHeaderEN11AbyssEngine6StringEb
_ZN6Layout10drawHeaderEv
_ZN6Layout10drawWindowEN11AbyssEngine6StringE
_ZN6Layout10drawWindowEN11AbyssEngine6StringEb
_ZN6Layout10drawWindowEN11AbyssEngine6StringEiiii
_ZN6Layout10drawWindowEN11AbyssEngine6StringEiiiib
_ZN6Layout11OnTouchMoveEii
_ZN6Layout11helpPressedEv
_ZN6Layout12OnTouchBeginEii
_ZN6Layout12drawBGBorderEjjiiii
_ZN6Layout12drawBGBorderEjjiiiiii
_ZN6Layout12formatNumberEi
_ZN6Layout12setDrawColorEi
_ZN6Layout13drawBGPatternEjiiii
_ZN6Layout13drawScrollBarEiiiii
_ZN6Layout13formatCreditsEi
_ZN6Layout13getPulseValueEf
_ZN6Layout14drawHelpWindowEv
_ZN6Layout14initHelpWindowEN11AbyssEngine6StringE
_ZN6Layout15drawEmptyFooterEb
_ZN6Layout16enableFillScreenEb
_ZN6Layout17drawFooterStationEv
_ZN6Layout19getHelpButtonOffsetEv
_ZN6Layout19setWindowDimensionsEiiii
_ZN6Layout21resetWindowDimensionsEv
_ZN6Layout22drawFooterNoBackButtonEv
_ZN6Layout24drawMissionRewardMessageEb
_ZN6Layout24getFooterTransitionWidthEv
_ZN6Layout24showMissionRewardMessageEib
_ZN6Layout6drawBGEv
_ZN6Layout6reloadEv
_ZN6Layout6updateEi
_ZN6Layout7drawBoxEiiiiiN11AbyssEngine6StringE
_ZN6Layout7drawBoxEiiiiiN11AbyssEngine6StringEh
_ZN6Layout7drawTipEv
_ZN6Layout7initTipEv
_ZN6Layout8drawFadeEv
_ZN6Layout8drawMaskEiiii
_ZN6Layout8drawMaskEv
_ZN6Layout8isFadingEv
_ZN6Layout9startFadeEbii
_ZN6Layout9tagStringEN11AbyssEngine6StringE
_ZN6LayoutC1Ev
_ZN6LayoutC2Ev
_ZN6LayoutD1Ev
_ZN6LayoutD2Ev
_ZN6MTitle10OnKeyPressExx
_ZN6MTitle10OnRender2DEv
_ZN6MTitle10OnRender3DEv
_ZN6MTitle10OnTouchEndEii
_ZN6MTitle11OnTouchMoveEii
_ZN6MTitle12OnInitializeEv
_ZN6MTitle12OnKeyReleaseExx
_ZN6MTitle12OnTouchBeginEii
_ZN6MTitle17ShowLoadingScreenEv
_ZN6MTitle8OnUpdateEv
_ZN6MTitle9OnReleaseEv
_ZN6MTitleC1Ev
_ZN6MTitleC2Ev
_ZN6MTitleD0Ev
_ZN6MTitleD1Ev
_ZN6MTitleD2Ev
_ZN6Player10addEnemiesEP5ArrayIPS_E
_ZN6Player10damageHullEi
_ZN6Player10damageShipEi
_ZN6Player10getArmorHPEv
_ZN6Player10getEnemiesEv
_ZN6Player10getGammaHPEv
_ZN6Player10isAsteroidEv
_ZN6Player10isGasCloudEv
_ZN6Player10setArmorHPEi
_ZN6Player10setEmpDataEii
_ZN6Player10setEnemiesEP5ArrayIPS_E
_ZN6Player10setGammaHPEi
_ZN6Player11damageGammaEf
_ZN6Player11getEmpForceEv
_ZN6Player11getGunSlotsEv
_ZN6Player11getKIPlayerEv
_ZN6Player11getPositionEv
_ZN6Player11getShieldHPEv
_ZN6Player11replaceGunsEiiiiib
_ZN6Player11setEmpForceEf
_ZN6Player11setKIPlayerEP8KIPlayer
_ZN6Player11setShieldHPEi
_ZN6Player11turnedEnemyEv
_ZN6Player12damageShieldEi
_ZN6Player12getBombForceEv
_ZN6Player12getEmpPointsEv
_ZN6Player12getHitVectorEv
_ZN6Player12getHitpointsEv
_ZN6Player12gunAvailableEi
_ZN6Player12setBombForceEf
_ZN6Player12setHitVectorEfff
_ZN6Player12setHitpointsEi
_ZN6Player12stopShootingEi
_ZN6Player12stopShootingEii
_ZN6Player13getCombinedHPEv
_ZN6Player13getDamageRateEv
_ZN6Player13getMaxArmorHPEv
_ZN6Player13isAlwaysEnemyEv
_ZN6Player13removeAllGunsEv
_ZN6Player13resetGunDelayEi
_ZN6Player13setMaxArmorHPEi
_ZN6Player13setVulnerableEb
_ZN6Player14GetEngineEventEv
_ZN6Player14getMaxShieldHPEv
_ZN6Player14isAlwaysFriendEv
_ZN6Player14playShootSoundEiiPN11AbyssEngine6AEMath6VectorEf
_ZN6Player14refillGunDelayEi
_ZN6Player14regenerateHullEv
_ZN6Player14setAlwaysEnemyEb
_ZN6Player14setMaxShieldHPEi
_ZN6Player14setNeverAttackEb
_ZN6Player14stopShootSoundEii
_ZN6Player15PlayEngineSoundEiPN11AbyssEngine6AEMath6VectorE
_ZN6Player15StopEngineSoundEv
_ZN6Player15doesNeverAttackEv
_ZN6Player15getGunRegenRateEi
_ZN6Player15getMaxEmpPointsEv
_ZN6Player15getMaxHitpointsEv
_ZN6Player15regenerateArmorEv
_ZN6Player15setAlwaysFriendEb
_ZN6Player15setMaxEmpPointsEi
_ZN6Player15setMaxHitpointsEi
_ZN6Player16PauseEngineSoundEv
_ZN6Player16calcWeaponSoundsEi
_ZN6Player16getEmpDamageRateEv
_ZN6Player16regenerateShieldEf
_ZN6Player16regenerateShieldEv
_ZN6Player16updateDamageRateEv
_ZN6Player17ResumeEngineSoundEb
_ZN6Player17setPlayShootSoundEbi
_ZN6Player18getArmorDamageRateEv
_ZN6Player18setShootingEnabledEb
_ZN6Player19getShieldDamageRateEv
_ZN6Player19pitchAllPrimaryGunsEf
_ZN6Player23resetDamageDoneByPlayerEv
_ZN6Player4healEf
_ZN6Player5resetEv
_ZN6Player5shootEiixb
_ZN6Player5shootEiixbN11AbyssEngine6AEMath6MatrixE
_ZN6Player5shootEixb
_ZN6Player5shootEixbN11AbyssEngine6AEMath6MatrixE
_ZN6Player6addGunEP3Guni
_ZN6Player6addGunEP5ArrayIP3GunEi
_ZN6Player6damageEi
_ZN6Player6damageEibi
_ZN6Player6isDeadEv
_ZN6Player6updateEib
_ZN6Player8addEnemyEPS_
_ZN6Player8getEnemyEi
_ZN6Player8isActiveEv
_ZN6Player8setEnemyEPS_
_ZN6Player8velocityE
_ZN6Player9damageEmpEib
_ZN6Player9getRadiusEv
_ZN6Player9isDamagedEv
_ZN6Player9setActiveEb
_ZN6Player9setRadiusEi
_ZN6Player9turnEnemyEv
_ZN6PlayerC1Eiiiii
_ZN6PlayerC2Eiiiii
_ZN6PlayerD1Ev
_ZN6PlayerD2Ev
_ZN6Sparks6renderEv
_ZN6Sparks6updateEi
_ZN6Sparks7explodeERKN11AbyssEngine6AEMath6VectorE
_ZN6Sparks7explodeEiii
_ZN6Sparks8isRocketEv
_ZN6Sparks9translateERKN11AbyssEngine6AEMath6VectorE
_ZN6SparksC1Ei
_ZN6SparksC2Ei
_ZN6SparksD1Ev
_ZN6SparksD2Ev
_ZN6Sprite10drawRegionEiiii
_ZN6Sprite11setPositionEii
_ZN6Sprite13getFrameWidthEv
_ZN6Sprite14getFrameHeightEv
_ZN6Sprite16getRawFrameCountEv
_ZN6Sprite19setRefPixelPositionEii
_ZN6Sprite20defineReferencePixelEii
_ZN6Sprite4drawEff
_ZN6Sprite8getFrameEv
_ZN6Sprite8setFrameEi
_ZN6Sprite9nextFrameEv
_ZN6Sprite9prevFrameEv
_ZN6SpriteC1EPjiii
_ZN6SpriteC1Ejii
_ZN6SpriteC2EPjiii
_ZN6SpriteC2Ejii
_ZN6SpriteD1Ev
_ZN6SpriteD2Ev
_ZN6Status10getCreditsEv
_ZN6Status10getMissionEv
_ZN6Status10getStationEv
_ZN6Status10getWingmenEv
_ZN6Status10loadAgentsEP5ArrayIiE
_ZN6Status10loadAgentsEv
_ZN6Status10loadWantedEv
_ZN6Status10moveWantedEv
_ZN6Status10setCreditsEi
_ZN6Status10setMissionEP7Mission
_ZN6Status10setStationEP7Station
_ZN6Status10setWingmenEP5ArrayIPN11AbyssEngine6StringEE
_ZN6Status11getMissionsEv
_ZN6Status11getStandingEv
_ZN6Status11replaceHashEN11AbyssEngine6StringES1_
_ZN6Status11replaceHashEN11AbyssEngine6StringES1_S1_
_ZN6Status12changeRatingEi
_ZN6Status12hardCoreModeEv
_ZN6Status12inAlienOrbitEv
_ZN6Status12inEmptyOrbitEv
_ZN6Status12inStormOrbitEv
_ZN6Status12jumpgateUsedEv
_ZN6Status12visitStationEv
_ZN6Status13changeCreditsEi
_ZN6Status13crateCapturedEi
_ZN6Status13departStationEP7Station
_ZN6Status13getBluePrintsEv
_ZN6Status13getPassengersEv
_ZN6Status13missionFailedEbx
_ZN6Status13removeMissionEP7Mission
_ZN6Status13setPassengersEi
_ZN6Status14getMaxMissionsEv
_ZN6Status14getPirateKillsEv
_ZN6Status14getPlanetNamesEv
_ZN6Status14getPlayingTimeEv
_ZN6Status14incPirateKillsEv
_ZN6Status14incPlayingTimeEx
_ZN6Status14setPirateKillsEi
_ZN6Status14setPlayingTimeEx
_ZN6Status14stringHasTokenEN11AbyssEngine6StringES1_
_ZN6Status15calcCargoPricesEv
_ZN6Status15checkForLevelUpEv
_ZN6Status15getJumpgateUsedEv
_ZN6Status15getMissionCountEv
_ZN6Status15getStationStackEv
_ZN6Status15incMissionCountEv
_ZN6Status15setJumpgateUsedEi
_ZN6Status15setMissionCountEi
_ZN6Status15setStationStackEP5ArrayIP7StationE
_ZN6Status15unlockBluePrintEi
_ZN6Status16getGoodsProducedEv
_ZN6Status16inFogSkyboxOrbitEv
_ZN6Status16inSupernovaOrbitEv
_ZN6Status16incGoodsProducedEi
_ZN6Status16missionCompletedEbbx
_ZN6Status16setGoodsProducedEi
_ZN6Status17activateNewWantedEv
_ZN6Status17addPendingProductEP9BluePrint
_ZN6Status17addStationToStackEP7Station
_ZN6Status17getCapturedCratesEv
_ZN6Status17getPlanetTexturesEv
_ZN6Status17inPirateLootOrbitEv
_ZN6Status17inPlanetRingOrbitEv
_ZN6Status17inSupernovaSystemEv
_ZN6Status17isStorylineWantedEi
_ZN6Status17setCapturedCratesEi
_ZN6Status18getBoughtEquipmentEv
_ZN6Status18getCampaignMissionEv
_ZN6Status18getPendingProductsEv
_ZN6Status18getStationsVisitedEv
_ZN6Status18inDeepScienceOrbitEv
_ZN6Status18incEquipmentBoughtEv
_ZN6Status18orbitHasPlanetRingEi
_ZN6Status18setBoughtEquipmentEi
_ZN6Status18setCampaignMissionEP7Mission
_ZN6Status18setStationsVisitedEi
_ZN6Status19getFreelanceMissionEv
_ZN6Status19getNumberOfMissionsEv
_ZN6Status19inBlackMarketSystemEv
_ZN6Status19isBlueprintUnlockedEi
_ZN6Status19nextCampaignMissionEb
_ZN6Status19setFreelanceMissionEP7Mission
_ZN6Status19setSystemVisibilityEib
_ZN6Status20getCollectedBountiesEi
_ZN6Status20incCollectedBountiesEi
_ZN6Status21getSystemVisibilitiesEv
_ZN6Status21wantedBoardAccessibleEv
_ZN6Status23getWantedInCurrentOrbitEv
_ZN6Status25getCurrentCampaignMissionEv
_ZN6Status25isFreighterMissionStationEi
_ZN6Status25setCurrentCampaignMissionEi
_ZN6Status26getGammaRayDamagePerSecondEii
_ZN6Status29getFreighterMissionStationBitEi
_ZN6Status7dlc1WonEv
_ZN6Status7gameWonEv
_ZN6Status7getShipEv
_ZN6Status7setShipEP4Ship
_ZN6Status8addKillsEi
_ZN6Status8getKillsEv
_ZN6Status8getLevelEv
_ZN6Status8incKillsEv
_ZN6Status8setKillsEi
_ZN6Status8setLevelEi
_ZN6Status9getAgentsEv
_ZN6Status9getLastXPEv
_ZN6Status9getRatingEv
_ZN6Status9getSystemEv
_ZN6Status9getWantedEv
_ZN6Status9isOnStackEP7Station
_ZN6Status9resetGameEv
_ZN6Status9setLastXPEi
_ZN6Status9setRatingEi
_ZN6StatusC1Ev
_ZN6StatusC2Ev
_ZN6StatusD1Ev
_ZN6StatusD2Ev
_ZN6Wanted11getLastSeenEv
_ZN6Wanted11setLastSeenEi
_ZN6Wanted12getHitpointsEv
_ZN6Wanted12getTravelsToEv
_ZN6Wanted12isTerminatedEv
_ZN6Wanted12setTravelsToEi
_ZN6Wanted13getImagePartsEv
_ZN6Wanted13getLootAmountEv
_ZN6Wanted13getNumWingmenEv
_ZN6Wanted13setImagePartsEPi
_ZN6Wanted13setTerminatedEb
_ZN6Wanted18getCurrentLocationEv
_ZN6Wanted18getRequiredMissionEv
_ZN6Wanted18setCurrentLocationEi
_ZN6Wanted18setRequiredMissionEi
_ZN6Wanted19getRequiredBountiesEv
_ZN6Wanted6isMaleEv
_ZN6Wanted7getLootEv
_ZN6Wanted7getNameEv
_ZN6Wanted7getRaceEv
_ZN6Wanted7getShipEv
_ZN6Wanted8getBoardEv
_ZN6Wanted8getIndexEv
_ZN6Wanted8isActiveEv
_ZN6Wanted9getRewardEv
_ZN6Wanted9getWeaponEv
_ZN6Wanted9setActiveEb
_ZN6WantedC1EiN11AbyssEngine6StringEiibiiiiiiiii
_ZN6WantedC2EiN11AbyssEngine6StringEiibiiiiiiiii
_ZN6WantedD1Ev
_ZN6WantedD2Ev
_ZN7BeamGun10replaceGunEji
_ZN7BeamGun10setEnemiesEP5ArrayIP6PlayerE
_ZN7BeamGun6renderEv
_ZN7BeamGun6updateEi
_ZN7BeamGun8setEnemyEP6Player
_ZN7BeamGun9translateERKN11AbyssEngine6AEMath6VectorE
_ZN7BeamGunC1EiP3GuniP5Level
_ZN7BeamGunC2EiP3GuniP5Level
_ZN7BeamGunD0Ev
_ZN7BeamGunD1Ev
_ZN7BeamGunD2Ev
_ZN7BombGun6renderEv
_ZN7BombGun6updateEi
_ZN7BombGun9isBombGunEv
_ZN7BombGun9setPlayerEP9PlayerEgo
_ZN7BombGunC1EP3GunjiibP5Level
_ZN7BombGunC2EP3GunjiibP5Level
_ZN7BombGunD0Ev
_ZN7BombGunD1Ev
_ZN7BombGunD2Ev
_ZN7Globals10appManagerE
_ZN7Globals10gameLoadedE
_ZN7Globals10gameSavingE
_ZN7Globals10resetHintsEv
_ZN7Globals10right_edgeE
_ZN7Globals10sec_fire_xE
_ZN7Globals10sec_fire_yE
_ZN7Globals10sec_fire_zE
_ZN7Globals11autopilot_xE
_ZN7Globals11autopilot_yE
_ZN7Globals11autopilot_zE
_ZN7Globals11bottom_edgeE
_ZN7Globals11getItemNameEi
_ZN7Globals11keyBindingsE
_ZN7Globals11logoIsShownE
_ZN7Globals11mouseDeltaXE
_ZN7Globals11mouseDeltaYE
_ZN7Globals11mouse_wheelE
_ZN7Globals11recordSlotsE
_ZN7Globals12achievementsE
_ZN7Globals12getLineArrayEjRKN11AbyssEngine6StringEiP5ArrayIPS1_E
_ZN7Globals12getShipGroupEiib
_ZN7Globals12imageFactoryE
_ZN7Globals12isInMainMenuE
_ZN7Globals12mouse_wheelXE
_ZN7Globals12mouse_wheelYE
_ZN7Globals12qualityLevelE
_ZN7Globals12shipTemplateE
_ZN7Globals12showBestDealE
_ZN7Globals12simulateFireE
_ZN7Globals12subMenuIndexE
_ZN7Globals12topMenuIndexE
_ZN7Globals13action_menu_xE
_ZN7Globals13action_menu_yE
_ZN7Globals13action_menu_zE
_ZN7Globals13getRandomNameEib
_ZN7Globals13recordHandlerE
_ZN7Globals13resetKeyboardE
_ZN7Globals13retinaDisplayE
_ZN7Globals13setCoordsFireEiijjRjRtS1_S1_S1_S1_S1_S1_S1_S1_S1_S1_S1_
_ZN7Globals13touch_stick_xE
_ZN7Globals13touch_stick_yE
_ZN7Globals13touch_stick_zE
_ZN7Globals13turret_view_xE
_ZN7Globals13turret_view_yE
_ZN7Globals13turret_view_zE
_ZN7Globals14cItemListID_00E
_ZN7Globals14cItemListID_01E
_ZN7Globals14cItemListID_02E
_ZN7Globals14cItemListID_03E
_ZN7Globals14cItemListID_04E
_ZN7Globals14fast_forward_xE
_ZN7Globals14fast_forward_yE
_ZN7Globals14fast_forward_zE
_ZN7Globals14fontLangSelectE
_ZN7Globals14keyboard_swipeE
_ZN7Globals14setCoordsSteerEiiiiRtS0_S0_S0_S0_S0_S0_S0_S0_S0_
_ZN7Globals15createBillBoardEiiffffi
_ZN7Globals15iCloudSupportedE
_ZN7Globals15isIOS6InstalledE
_ZN7Globals15is_menu_visibleE
_ZN7Globals15other_buttons_xE
_ZN7Globals15other_buttons_yE
_ZN7Globals15showWingmanMenuE
_ZN7Globals15smallButton_dimE
_ZN7Globals16cItemListName_00E
_ZN7Globals16cItemListName_01E
_ZN7Globals16cItemListName_02E
_ZN7Globals16cItemListName_03E
_ZN7Globals16cItemListName_04E
_ZN7Globals16enterSpaceLoungeE
_ZN7Globals16first_start_everE
_ZN7Globals16getBoundedStringERKN11AbyssEngine6StringEi
_ZN7Globals16getKeyActionNameEi
_ZN7Globals16getRandomStationEv
_ZN7Globals16globalPriceRaiseE
_ZN7Globals16isStarMapVisibleE
_ZN7Globals16longToTimeStringExRN11AbyssEngine6StringE
_ZN7Globals16releaseResourcesEv
_ZN7Globals17cItemListPrice_00E
_ZN7Globals17cItemListPrice_01E
_ZN7Globals17cItemListPrice_02E
_ZN7Globals17cItemListPrice_03E
_ZN7Globals17cItemListPrice_04E
_ZN7Globals17getWreckCollisionEiP10AEGeometry
_ZN7Globals17iPadLargePossibleE
_ZN7Globals17initMemoryWarningE
_ZN7Globals17instantActionTypeE
_ZN7Globals17instantActionWaveE
_ZN7Globals17isTelekomCustomerE
_ZN7Globals17lastRecordWrittenE
_ZN7Globals18getDialogueSoundIdEiP5Agent
_ZN7Globals18instantActionScoreE
_ZN7Globals18is_hacking_visibleE
_ZN7Globals18reportLeaderboardsEv
_ZN7Globals18showNewCreditsMenuE
_ZN7Globals18sub_menu_buttons_xE
_ZN7Globals18sub_menu_buttons_yE
_ZN7Globals19getAgentMissionTextEP5Agent
_ZN7Globals19getRandomPlanetNameEv
_ZN7Globals19iap_hack_dlc1BoughtE
_ZN7Globals19iap_hack_dlc2BoughtE
_ZN7Globals19iap_hack_dlc3BoughtE
_ZN7Globals19instantActionPointsE
_ZN7Globals19rotateShipInStationE
_ZN7Globals19useRefractionShaderE
_ZN7Globals1hE
_ZN7Globals1wE
_ZN7Globals20cItemListCurrency_00E
_ZN7Globals20cItemListCurrency_01E
_ZN7Globals20cItemListCurrency_02E
_ZN7Globals20cItemListCurrency_03E
_ZN7Globals20cItemListCurrency_04E
_ZN7Globals20getSoundResourceListEv
_ZN7Globals20lastSpaceMusicPlayedE
_ZN7Globals20mouseCursorActivatedE
_ZN7Globals21energyCellsProbChangeE
_ZN7Globals21getRandomEnemyFighterEi
_ZN7Globals21isCinematicModeActiveE
_ZN7Globals21sub_menu_button_countE
_ZN7Globals22addSoundResourceToListEi
_ZN7Globals22iPadAssetsWithLowerResE
_ZN7Globals22inAppPurchaseSupportedE
_ZN7Globals22lastStationMusicPlayedE
_ZN7Globals22menu_touch_window_typeE
_ZN7Globals22useLowResTexturesForHDE
_ZN7Globals23cItemListDescription_00E
_ZN7Globals23cItemListDescription_01E
_ZN7Globals23cItemListDescription_02E
_ZN7Globals23cItemListDescription_03E
_ZN7Globals23cItemListDescription_04E
_ZN7Globals23instantActionPlayerNameE
_ZN7Globals23isRunningHDonWeakDeviceE
_ZN7Globals23replaceKeyBindingTokensERKN11AbyssEngine6StringE
_ZN7Globals23showMouseDuringGameOverE
_ZN7Globals24getRandomSystemForDrinksEv
_ZN7Globals24is_choice_window_visibleE
_ZN7Globals24quickmenu_button_start_xE
_ZN7Globals24quickmenu_button_start_yE
_ZN7Globals24switch_to_target_settingE
_ZN7Globals25lastCampaignMissionFailedE
_ZN7Globals25longToTimeStringNoSecondsExRN11AbyssEngine6StringE
_ZN7Globals25startNewSoundResourceListEv
_ZN7Globals26getInAppPurchaseArrayIndexEiP5ArrayIPN11AbyssEngine6StringEE
_ZN7Globals26getKeyBindingReplaceStringEi
_ZN7Globals26is_dialogue_window_visibleE
_ZN7Globals26playMusicAndFadeOutCurrentEi
_ZN7Globals26secondaryWeaponsProbChangeE
_ZN7Globals28lastCampaignMissionFailCountE
_ZN7Globals28translateStarMapInXDirectionE
_ZN7Globals28translateStarMapInYDirectionE
_ZN7Globals29reportSupernovaChallengeScoreEv
_ZN7Globals2n9E
_ZN7Globals31startLiteVersionWithMoreCreditsE
_ZN7Globals3rndE
_ZN7Globals4fontE
_ZN7Globals4iPadE
_ZN7Globals4initEPN11AbyssEngine18ApplicationManagerEPNS0_6EngineE
_ZN7Globals4keysE
_ZN7Globals4sqrtEf
_ZN7Globals5bankZE
_ZN7Globals5hintsE
_ZN7Globals5itemsE
_ZN7Globals5shipsE
_ZN7Globals5soundE
_ZN7Globals6CanvasE
_ZN7Globals6fire_xE
_ZN7Globals6fire_yE
_ZN7Globals6fire_zE
_ZN7Globals6galaxyE
_ZN7Globals6iPadHDE
_ZN7Globals6layoutE
_ZN7Globals6statusE
_ZN7Globals7boost_xE
_ZN7Globals7boost_yE
_ZN7Globals7boost_zE
_ZN7Globals7getLineEjN11AbyssEngine6StringEiPS1_
_ZN7Globals7globalsE
_ZN7Globals7optionsE
_ZN7Globals7pause_xE
_ZN7Globals7pause_yE
_ZN7Globals7pause_zE
_ZN7Globals8gameTextE
_ZN7Globals8loadFontEi
_ZN7Globals8top_edgeE
_ZN7Globals9drawLinesEjP5ArrayIPN11AbyssEngine6StringEEii
_ZN7Globals9drawLinesEjP5ArrayIPN11AbyssEngine6StringEEiib
_ZN7Globals9drawLinesEjP5ArrayIPN11AbyssEngine6StringEEiijb
_ZN7Globals9fontAlienE
_ZN7Globals9generatorE
_ZN7Globals9iPadLargeE
_ZN7Globals9left_edgeE
_ZN7GlobalsC1Ev
_ZN7GlobalsC2Ev
_ZN7GlobalsD1Ev
_ZN7GlobalsD2Ev
_ZN7MineGun6renderEv
_ZN7MineGun6updateEi
_ZN7MineGun9isMineGunEv
_ZN7MineGun9setPlayerEP9PlayerEgo
_ZN7MineGunC1EP3GuniiiP5Level
_ZN7MineGunC2EP3GuniiiP5Level
_ZN7MineGunD0Ev
_ZN7MineGunD1Ev
_ZN7MineGunD2Ev
_ZN7Mission10setVisibleEb
_ZN7Mission11getDistanceEv
_ZN7Mission12calcDistanceEv
_ZN7Mission13getClientNameEv
_ZN7Mission13getClientRaceEv
_ZN7Mission13getDifficultyEv
_ZN7Mission13getTargetNameEv
_ZN7Mission13setDifficultyEi
_ZN7Mission13setTargetNameEN11AbyssEngine6StringE
_ZN7Mission14getClientImageEv
_ZN7Mission14getDescriptionEv
_ZN7Mission14getStatusValueEv
_ZN7Mission14setStatusValueEi
_ZN7Mission16getTargetStationEv
_ZN7Mission16isOutsideMissionEv
_ZN7Mission16setTargetStationEi
_ZN7Mission17isCampaignMissionEv
_ZN7Mission18setCampaignMissionEb
_ZN7Mission18setProductionGoodsEii
_ZN7Mission19getTargetSystemNameEv
_ZN7Mission19setTargetSystemNameERKN11AbyssEngine6StringE
_ZN7Mission20getTargetStationNameEv
_ZN7Mission22getProductionGoodIndexEv
_ZN7Mission22isInstantActionMissionEv
_ZN7Mission23getProductionGoodAmountEv
_ZN7Mission23setInstantActionMissionEb
_ZN7Mission5cloneEv
_ZN7Mission5emptyE
_ZN7Mission6hasWonEv
_ZN7Mission6setWonEb
_ZN7Mission7getNameEv
_ZN7Mission7getTypeEv
_ZN7Mission7isEmptyEv
_ZN7Mission7setTypeEi
_ZN7Mission8getAgentEv
_ZN7Mission8getBonusEv
_ZN7Mission8getCostsEv
_ZN7Mission8setAgentEP5Agent
_ZN7Mission8setBonusEi
_ZN7Mission8setCostsEi
_ZN7Mission9getRewardEv
_ZN7Mission9hasFailedEv
_ZN7Mission9isVisibleEv
_ZN7Mission9setFailedEb
_ZN7Mission9setRewardEi
_ZN7MissionC1Ei
_ZN7MissionC1EiN11AbyssEngine6StringEPiiiii
_ZN7MissionC1Eiii
_ZN7MissionC1Ev
_ZN7MissionC2Ei
_ZN7MissionC2EiN11AbyssEngine6StringEPiiiii
_ZN7MissionC2Eiii
_ZN7MissionC2Ev
_ZN7MissionD0Ev
_ZN7MissionD1Ev
_ZN7MissionD2Ev
_ZN7StarMap10OnTouchEndEii
_ZN7StarMap10initLightsEv
_ZN7StarMap11OnTouchMoveEii
_ZN7StarMap12OnTouchBeginEii
_ZN7StarMap14initStarSystemEv
_ZN7StarMap14isInPlanetModeEv
_ZN7StarMap14missionChangedEv
_ZN7StarMap14setJumpMapModeEbb
_ZN7StarMap16drawOnScreenInfoEib
_ZN7StarMap24askForJumpIntoAlienWorldEv
_ZN7StarMap4drawEv
_ZN7StarMap4initEbP7Missionbi
_ZN7StarMap6departEb
_ZN7StarMap6renderEv
_ZN7StarMap6updateEi
_ZN7StarMap7drawKeyEv
_ZN7StarMap8renderBGEv
_ZN7StarMap8setStartEii
_ZN7StarMapC1EbP7Missionbi
_ZN7StarMapC2EbP7Missionbi
_ZN7StarMapD1Ev
_ZN7StarMapD2Ev
_ZN7Station10removeShipEP4Ship
_ZN7Station11getTecLevelEv
_ZN7Station11removeShipsEv
_ZN7Station12isDiscoveredEv
_ZN7Station15getTextureIndexEv
_ZN7Station18hasAttackedFriendsEv
_ZN7Station18isAttackedByAliensEv
_ZN7Station18setAttackedFriendsEb
_ZN7Station20stationHasPirateBaseEv
_ZN7Station21getPirateStationIndexEv
_ZN7Station23getHiddenBlueprintIndexEv
_ZN7Station25stationHasHiddenBlueprintEb
_ZN7Station5cloneEv
_ZN7Station5visitEv
_ZN7Station6equalsEPS_
_ZN7Station7addItemEP4Item
_ZN7Station7addShipEP4Ship
_ZN7Station7getNameEv
_ZN7Station7hasItemEi
_ZN7Station7hasShipEi
_ZN7Station8getIndexEv
_ZN7Station8getItemsEv
_ZN7Station8getShipsEv
_ZN7Station8isPlanetEv
_ZN7Station8setItemsEP5ArrayIP4ItemEb
_ZN7Station8setShipsEP5ArrayIP4ShipEb
_ZN7Station9getAgentsEv
_ZN7Station9getSystemEv
_ZN7Station9setAgentsEP5ArrayIP5AgentE
_ZN7StationC1EN11AbyssEngine6StringEiiii
_ZN7StationC1Ev
_ZN7StationC2EN11AbyssEngine6StringEiiii
_ZN7StationC2Ev
_ZN7StationD1Ev
_ZN7StationD2Ev
_ZN7_JNIEnv13CallIntMethodEP8_jobjectP10_jmethodIDz
_ZN7_JNIEnv14CallVoidMethodEP8_jobjectP10_jmethodIDz
_ZN7_JNIEnv19CallStaticIntMethodEP7_jclassP10_jmethodIDz
_ZN7_JNIEnv20CallStaticVoidMethodEP7_jclassP10_jmethodIDz
_ZN7_JNIEnv23CallStaticBooleanMethodEP7_jclassP10_jmethodIDz
_ZN8CutScene10initializeEv
_ZN8CutScene11resetCameraEv
_ZN8CutScene13isInitializedEv
_ZN8CutScene14checkForTurretEv
_ZN8CutScene17replacePlayerShipEii
_ZN8CutScene6updateEi
_ZN8CutScene6updateEv
_ZN8CutScene7processEi
_ZN8CutScene8render2DEv
_ZN8CutScene8render3DEv
_ZN8CutScene8renderBGEv
_ZN8CutSceneC1Ei
_ZN8CutSceneC2Ei
_ZN8CutSceneD1Ev
_ZN8CutSceneD2Ev
_ZN8FileRead10loadAgentsEv
_ZN8FileRead10loadTickerEv
_ZN8FileRead10loadWantedEv
_ZN8FileRead11loadStationEi
_ZN8FileRead13loadShipPartsEi
_ZN8FileRead15loadItemsBinaryEv
_ZN8FileRead15loadNamesBinaryEibb
_ZN8FileRead15loadShipsBinaryEv
_ZN8FileRead15loadSpacePointsEii
_ZN8FileRead16loadStationPartsEii
_ZN8FileRead17loadSystemsBinaryEv
_ZN8FileRead18loadStationsBinaryEP11SolarSystem
_ZN8FileRead18loadStationsBinaryEPsi
_ZN8FileRead18loadStationsBinaryEv
_ZN8FileRead18loadWreckCollisionEi
_ZN8FileRead19loadStaticCollisionEi
_ZN8FileRead19loadWeaponPositionsEi
_ZN8FileRead20loadStationCollisionEi
_ZN8FileReadC1Ev
_ZN8FileReadC2Ev
_ZN8FileReadD1Ev
_ZN8FileReadD2Ev
_ZN8GameDataC2Ev
_ZN8GameDataD2Ev
_ZN8GameText11currentLangE
_ZN8GameText11getLanguageEv
_ZN8GameText11setLanguageEi
_ZN8GameText11setLanguageEsi
_ZN8GameText12ReadLangFileEji
_ZN8GameText13getRegionCodeEv
_ZN8GameText17isNonArabicStringEPKtj
_ZN8GameText18setSubstituteArrayEPij
_ZN8GameText23convertStringFromArabicEN11AbyssEngine6StringE
_ZN8GameText7getTextEi
_ZN8GameText7releaseEv
_ZN8GameTextC1Ev
_ZN8GameTextC2Ev
_ZN8GameTextD1Ev
_ZN8GameTextD2Ev
_ZN8KIPlayer10setEnemiesEP5ArrayIP6PlayerE
_ZN8KIPlayer10setToSleepEv
_ZN8KIPlayer10setVisibleEb
_ZN8KIPlayer10setWingmanEbi
_ZN8KIPlayer11createCrateEi
_ZN8KIPlayer11getPositionEv
_ZN8KIPlayer11setPositionERKN11AbyssEngine6AEMath6VectorE
_ZN8KIPlayer11setPositionEfff
_ZN8KIPlayer12captureCrateEP3Hud
_ZN8KIPlayer12outerCollideERKN11AbyssEngine6AEMath6VectorE
_ZN8KIPlayer12outerCollideEfff
_ZN8KIPlayer12setShipGroupEP10AEGeometryib
_ZN8KIPlayer13setInitActiveEb
_ZN8KIPlayer13setJumpSphereEj
_ZN8KIPlayer14cargoAvailableEv
_ZN8KIPlayer14getSpacePointsEv
_ZN8KIPlayer14levelCollisionEPN11AbyssEngine6AEMath6VectorEx
_ZN8KIPlayer14setSpacePointsEP5ArrayIP10SpacePointE
_ZN8KIPlayer15PlayEngineSoundEv
_ZN8KIPlayer15StopEngineSoundEv
_ZN8KIPlayer15enableExplosionEv
_ZN8KIPlayer16PauseEngineSoundEv
_ZN8KIPlayer16setRotationSpeedEf
_ZN8KIPlayer17ResumeEngineSoundEv
_ZN8KIPlayer17setWingmanCommandEiPS_
_ZN8KIPlayer18getCollisionNormalERKN11AbyssEngine6AEMath6VectorE
_ZN8KIPlayer18setInitialRotationEN11AbyssEngine6AEMath6VectorE
_ZN8KIPlayer19getProjectionVectorERKN11AbyssEngine6AEMath6VectorE
_ZN8KIPlayer22getNearestDockingPointERKN11AbyssEngine6AEMath6VectorE
_ZN8KIPlayer25getNearestNavigationPointERKN11AbyssEngine6AEMath6VectorEP10SpacePoint
_ZN8KIPlayer25projectCollisionOnSurfaceERKN11AbyssEngine6AEMath6VectorE
_ZN8KIPlayer4jumpEv
_ZN8KIPlayer4pushEi
_ZN8KIPlayer5awakeEv
_ZN8KIPlayer5resetEv
_ZN8KIPlayer6addGunEP3Guni
_ZN8KIPlayer6addGunEP5ArrayIP3GunEi
_ZN8KIPlayer6isDeadEv
_ZN8KIPlayer6renderEv
_ZN8KIPlayer6reviveEv
_ZN8KIPlayer6updateEi
_ZN8KIPlayer7collideEfff
_ZN8KIPlayer7getTypeEv
_ZN8KIPlayer7isDyingEv
_ZN8KIPlayer7isEnemyEv
_ZN8KIPlayer7setDeadEv
_ZN8KIPlayer8getRouteEv
_ZN8KIPlayer8getSpeedEv
_ZN8KIPlayer8initPushERKN11AbyssEngine6AEMath6VectorEi
_ZN8KIPlayer8isDockedEv
_ZN8KIPlayer8isJumperEv
_ZN8KIPlayer8setLevelEP5Level
_ZN8KIPlayer8setRouteEP5Route
_ZN8KIPlayer8setSpeedEf
_ZN8KIPlayer8setStateEi
_ZN8KIPlayer9isVisibleEv
_ZN8KIPlayer9isWingManEv
_ZN8KIPlayer9setActiveEb
_ZN8KIPlayer9setJumperEb
_ZN8KIPlayer9translateERKN11AbyssEngine6AEMath6VectorE
_ZN8KIPlayerC1EiiP6PlayerP10AEGeometryfffb
_ZN8KIPlayerC2EiiP6PlayerP10AEGeometryfffb
_ZN8KIPlayerD0Ev
_ZN8KIPlayerD1Ev
_ZN8KIPlayerD2Ev
_ZN8ListItem11getNumLinesEv
_ZN8ListItem11isBluePrintEv
_ZN8ListItem12checkCreditsEv
_ZN8ListItem12isSelectableEv
_ZN8ListItem12isSellButtonEv
_ZN8ListItem12isTextButtonEv
_ZN8ListItem16isPendingProductEv
_ZN8ListItem19isMoveToCargoButtonEv
_ZN8ListItem4initEv
_ZN8ListItem5isTabEv
_ZN8ListItem6isItemEv
_ZN8ListItem6isShipEv
_ZN8ListItem6isSlotEv
_ZN8ListItem6isTextEv
_ZN8ListItem7isCargoEv
_ZN8ListItem7isImageEv
_ZN8ListItem8getIndexEv
_ZN8ListItem8getPriceEv
_ZN8ListItem9checkSlotEv
_ZN8ListItem9checkSortEv
_ZN8ListItem9isMissionEv
_ZN8ListItemC1EP14PendingProduct
_ZN8ListItemC1EP4Item
_ZN8ListItemC1EP4Ship
_ZN8ListItemC1EP5Agent
_ZN8ListItemC1EP5ArrayIPN11AbyssEngine6StringEE
_ZN8ListItemC1EP7Mission
_ZN8ListItemC1EP9BluePrint
_ZN8ListItemC1EPN11AbyssEngine6StringE
_ZN8ListItemC1EPN11AbyssEngine6StringES2_
_ZN8ListItemC1EPN11AbyssEngine6StringEb
_ZN8ListItemC1EPN11AbyssEngine6StringEbi
_ZN8ListItemC1EPN11AbyssEngine6StringEi
_ZN8ListItemC1EPS_
_ZN8ListItemC1Ei
_ZN8ListItemC1Eii
_ZN8ListItemC1EiiPN11AbyssEngine6StringE
_ZN8ListItemC2EP14PendingProduct
_ZN8ListItemC2EP4Item
_ZN8ListItemC2EP4Ship
_ZN8ListItemC2EP5Agent
_ZN8ListItemC2EP5ArrayIPN11AbyssEngine6StringEE
_ZN8ListItemC2EP7Mission
_ZN8ListItemC2EP9BluePrint
_ZN8ListItemC2EPN11AbyssEngine6StringE
_ZN8ListItemC2EPN11AbyssEngine6StringES2_
_ZN8ListItemC2EPN11AbyssEngine6StringEb
_ZN8ListItemC2EPN11AbyssEngine6StringEbi
_ZN8ListItemC2EPN11AbyssEngine6StringEi
_ZN8ListItemC2EPS_
_ZN8ListItemC2Ei
_ZN8ListItemC2Eii
_ZN8ListItemC2EiiPN11AbyssEngine6StringE
_ZN8ListItemD1Ev
_ZN8ListItemD2Ev
_ZN8NewsItem5cloneEv
_ZN8NewsItemC1EibPbiii
_ZN8NewsItemC2EibPbiii
_ZN8NewsItemD1Ev
_ZN8NewsItemD2Ev
_ZN8Standing11applyDelictEii
_ZN8Standing11applyPointsEii
_ZN8Standing11getStandingEi
_ZN8Standing11setStandingEii
_ZN8Standing12applyDisableEi
_ZN8Standing12getEnemyRaceEi
_ZN8Standing12getStandingsEv
_ZN8Standing12rehabilitateEi
_ZN8Standing12setStandingsEPi
_ZN8Standing15applyStealCargoEi
_ZN8Standing15getMissionBonusEi
_ZN8Standing15getStandingRateEi
_ZN8Standing17isEnemyWithAnyoneEv
_ZN8Standing21applyMissionCompletedEi
_ZN8Standing22setPlayerSignatureRaceEi
_ZN8Standing7isEnemyEi
_ZN8Standing8isFriendEi
_ZN8Standing9applyKillEi
_ZN8Standing9isNeutralEi
_ZN8StandingC1Ev
_ZN8StandingC2Ev
_ZN8StandingD1Ev
_ZN8StandingD2Ev
_ZN8Waypoint11getPositionEv
_ZN8Waypoint5resetEv
_ZN8Waypoint7reachedEv
_ZN8Waypoint9setActiveEb
_ZN8WaypointC1EiiiP5Route
_ZN8WaypointC2EiiiP5Route
_ZN8WaypointD0Ev
_ZN8WaypointD1Ev
_ZN8WaypointD2Ev
_ZN9AEPakFile11GetFileSizeEv
_ZN9AEPakFile4ReadEjPv
_ZN9AEPakFile4SkipEj
_ZN9AEPakFile5WriteEjPv
_ZN9AEPakFile7ReleaseEv
_ZN9AEPakFileC1EP13FileInterfaceii
_ZN9AEPakFileC2EP13FileInterfaceii
_ZN9AEPakFileD0Ev
_ZN9AEPakFileD1Ev
_ZN9AEPakFileD2Ev
_ZN9BluePrint10isUnlockedEv
_ZN9BluePrint11getQuantityEv
_ZN9BluePrint11isCompletedEv
_ZN9BluePrint13getMoneySpentEv
_ZN9BluePrint13setMoneySpentEi
_ZN9BluePrint14getStationNameEv
_ZN9BluePrint14getTotalAmountEi
_ZN9BluePrint15getBaseQuantityEv
_ZN9BluePrint15getQuantityListEv
_ZN9BluePrint15getStationIndexEv
_ZN9BluePrint16getCurrentAmountEi
_ZN9BluePrint17getCompletionRateEv
_ZN9BluePrint17getIngredientListEv
_ZN9BluePrint18getRemainingAmountEi
_ZN9BluePrint19getIngredientsValueEv
_ZN9BluePrint22getAutoCompletionPriceEv
_ZN9BluePrint4lockEv
_ZN9BluePrint5resetEv
_ZN9BluePrint6unlockEv
_ZN9BluePrint7addItemEP4Itemii
_ZN9BluePrint7isEmptyEv
_ZN9BluePrint8completeEv
_ZN9BluePrint8getIndexEv
_ZN9BluePrintC1Ei
_ZN9BluePrintC2Ei
_ZN9BluePrintD1Ev
_ZN9BluePrintD2Ev
_ZN9Explosion10setScalingEf
_ZN9Explosion11peakReachedEv
_ZN9Explosion14addFireStreaksEv
_ZN9Explosion14setWeaponIndexEi
_ZN9Explosion5resetEv
_ZN9Explosion5startERKN11AbyssEngine6AEMath6MatrixE
_ZN9Explosion5startERKN11AbyssEngine6AEMath6VectorES4_
_ZN9Explosion6renderEv
_ZN9Explosion6updateEiP18TargetFollowCamera
_ZN9Explosion6updateEiRKN11AbyssEngine6AEMath6VectorE
_ZN9Explosion9isPlayingEv
_ZN9Explosion9playSoundEPN11AbyssEngine6AEMath6VectorE
_ZN9Explosion9translateERKN11AbyssEngine6AEMath6VectorE
_ZN9ExplosionC1Ei
_ZN9ExplosionC2Ei
_ZN9ExplosionD1Ev
_ZN9ExplosionD2Ev
_ZN9FModSound10fadeOutNowEv
_ZN9FModSound12enableReverbEi
_ZN9FModSound12setDownPitchEb
_ZN9FModSound13disableReverbEv
_ZN9FModSound13freeAllEventsEv
_ZN9FModSound13setParamValueEPKcif
_ZN9FModSound13setParamValueEPN4FMOD5EventEif
_ZN9FModSound13setParamValueEiif
_ZN9FModSound14enableCategoryEib
_ZN9FModSound14promptMusicCueEi
_ZN9FModSound14setSoundVolumeEif
_ZN9FModSound15isChannelActiveEi
_ZN9FModSound15pauseAllPlayingEv
_ZN9FModSound16setAudioLanguageEi
_ZN9FModSound17IsCategoryEnabledEi
_ZN9FModSound18getPlayingProgressEi
_ZN9FModSound18isHeadsetPluggedInEv
_ZN9FModSound18setMusicParamValueEif
_ZN9FModSound19getEventPauseLengthEi
_ZN9FModSound20stopAllSoundFXEventsEv
_ZN9FModSound23playMusicFadeOutCurrentEi
_ZN9FModSound23updateEvent3DAttributesEPN4FMOD5EventEiPN11AbyssEngine6AEMath6VectorES6_b
_ZN9FModSound23updateEvent3DAttributesEiPN11AbyssEngine6AEMath6VectorES3_b
_ZN9FModSound24tryToStopMusicForBGMusicEv
_ZN9FModSound28pauseAllPlayingSoundFXEventsEv
_ZN9FModSound4initEv
_ZN9FModSound4playEiPN11AbyssEngine6AEMath6VectorES3_f
_ZN9FModSound4stopEPN4FMOD5EventE
_ZN9FModSound4stopEi
_ZN9FModSound5pauseEPN4FMOD5EventE
_ZN9FModSound5pauseEi
_ZN9FModSound6resumeEPN4FMOD5EventE
_ZN9FModSound6resumeEi
_ZN9FModSound7releaseEv
_ZN9FModSound7stopAllEv
_ZN9FModSound8ERRCHECKE11FMOD_RESULT
_ZN9FModSound8getParamEPKci
_ZN9FModSound8pauseAllEv
_ZN9FModSound9isPlayingEi
_ZN9FModSound9resumeAllEv
_ZN9FModSound9setVolumeEif
_ZN9FModSound9updateAllEPN11AbyssEngine6AEMath6VectorES3_S3_S3_
_ZN9FModSoundC1Ev
_ZN9FModSoundC2Ev
_ZN9FModSoundD1Ev
_ZN9FModSoundD2Ev
_ZN9Generator11createAgentEP7Station
_ZN9Generator11getLootListEii
_ZN9Generator12createAgentsEP7Station
_ZN9Generator13createMissionEP5AgentP5ArrayIP11SolarSystemE
_ZN9Generator14getItemBuyListEP7Station
_ZN9Generator14getShipBuyListEP7Station
_ZN9Generator18computerTradeGoodsEP7Station
_ZN9Generator18isKaamoSpecialItemEi
_ZN9Generator20generateStationIndexEP5ArrayIP11SolarSystemEi
_ZN9GeneratorC1Ev
_ZN9GeneratorC2Ev
_ZN9GeneratorD1Ev
_ZN9GeneratorD2Ev
_ZN9ImagePart4drawEiib
_ZN9ImagePartC1Ejii
_ZN9ImagePartC2Ejii
_ZN9ImagePartD1Ev
_ZN9ImagePartD2Ev
_ZN9LensFlare6updateEi
_ZN9LensFlare8render2DEfffi
_ZN9LensFlareC1EPN11AbyssEngine11PaintCanvasE
_ZN9LensFlareC2EPN11AbyssEngine11PaintCanvasE
_ZN9LensFlareD1Ev
_ZN9LensFlareD2Ev
_ZN9ObjectGun10replaceGunEji
_ZN9ObjectGun10setEnemiesEP5ArrayIP6PlayerE
_ZN9ObjectGun10setScalingEiii
_ZN9ObjectGun6renderEv
_ZN9ObjectGun6updateEi
_ZN9ObjectGun8setEnemyEP6Player
_ZN9ObjectGun9translateERKN11AbyssEngine6AEMath6VectorE
_ZN9ObjectGunC1EiP3GunijP5Level
_ZN9ObjectGunC2EiP3GunijP5Level
_ZN9ObjectGunD0Ev
_ZN9ObjectGunD1Ev
_ZN9ObjectGunD2Ev
_ZN9Objective12addObjectiveEPS_
_ZN9Objective12getCalcValueEv
_ZN9Objective15getAchievedTextEv
_ZN9Objective15setAchievedTextEPN11AbyssEngine6StringE
_ZN9Objective19isSurvivalObjectiveEv
_ZN9Objective8achievedEi
_ZN9ObjectiveC1EiiP5Level
_ZN9ObjectiveC1EiiiP5Level
_ZN9ObjectiveC2EiiP5Level
_ZN9ObjectiveC2EiiiP5Level
_ZN9ObjectiveD1Ev
_ZN9ObjectiveD2Ev
_ZN9PlayerEgo10driveReadyEv
_ZN9PlayerEgo10forceBoostEv
_ZN9PlayerEgo10hackingWonEv
_ZN9PlayerEgo10handleShipEi
_ZN9PlayerEgo10setCollideEb
_ZN9PlayerEgo10setVisibleEb
_ZN9PlayerEgo10stopMiningEv
_ZN9PlayerEgo11GetUpVectorEv
_ZN9PlayerEgo11getHandlingEv
_ZN9PlayerEgo11getPositionEv
_ZN9PlayerEgo11isAutoPilotEv
_ZN9PlayerEgo11removeRouteEv
_ZN9PlayerEgo11resetLastHPEv
_ZN9PlayerEgo11setPositionEN11AbyssEngine6AEMath6VectorE
_ZN9PlayerEgo11setPositionEfff
_ZN9PlayerEgo11setRotationEfff
_ZN9PlayerEgo12GetDirVectorEv
_ZN9PlayerEgo12changeThrustEf
_ZN9PlayerEgo12crosshairPosE
_ZN9PlayerEgo12dockToPlanetEv
_ZN9PlayerEgo12dockToStreamEb
_ZN9PlayerEgo12drawThrottleEv
_ZN9PlayerEgo12endExplosionEv
_ZN9PlayerEgo12getBoostRateEv
_ZN9PlayerEgo12getCloakRateEv
_ZN9PlayerEgo12getHitpointsEv
_ZN9PlayerEgo12initManeuverEi
_ZN9PlayerEgo12isInWormholeEv
_ZN9PlayerEgo12readyToBoostEv
_ZN9PlayerEgo12setAutoPilotEP8KIPlayer
_ZN9PlayerEgo12stopShootingEi
_ZN9PlayerEgo12turnVerticalEif
_ZN9PlayerEgo13calcCollisionEP5ArrayIP8KIPlayerE
_ZN9PlayerEgo13getBoostSpeedEv
_ZN9PlayerEgo13goingToPlanetEv
_ZN9PlayerEgo13goingToStreamEv
_ZN9PlayerEgo13hasAutoTurretEv
_ZN9PlayerEgo13killLiberatorEv
_ZN9PlayerEgo13readyForCloakEv
_ZN9PlayerEgo13resetGunDelayEv
_ZN9PlayerEgo13resetMovementEv
_ZN9PlayerEgo13setAutoTurretEb
_ZN9PlayerEgo13setTurretModeEb
_ZN9PlayerEgo14alignToHorizonEv
_ZN9PlayerEgo14checkForTurretEv
_ZN9PlayerEgo14dockToAsteroidEP8KIPlayerP5Radar
_ZN9PlayerEgo14explosionEndedEv
_ZN9PlayerEgo14goingToStationEv
_ZN9PlayerEgo14hackingShuffleEv
_ZN9PlayerEgo14isInTurretModeEv
_ZN9PlayerEgo14levelCollisionEv
_ZN9PlayerEgo14lostMiningGameEv
_ZN9PlayerEgo14moveToPositionEN11AbyssEngine6AEMath6VectorEbf
_ZN9PlayerEgo14refillGunDelayEv
_ZN9PlayerEgo14startJumpDriveEv
_ZN9PlayerEgo14stopPlanetDockEv
_ZN9PlayerEgo14toggleCloakingEv
_ZN9PlayerEgo14turnHorizontalEif
_ZN9PlayerEgo14updateManeuverEv
_ZN9PlayerEgo15PlayEngineSoundEv
_ZN9PlayerEgo15StopEngineSoundEv
_ZN9PlayerEgo15goingToWaypointEv
_ZN9PlayerEgo15goingToWormholeEv
_ZN9PlayerEgo15isChargingCloakEv
_ZN9PlayerEgo15isChargingDriveEv
_ZN9PlayerEgo15setDockingStateEi
_ZN9PlayerEgo15setFreeLookModeEb
_ZN9PlayerEgo15throttleChangedEv
_ZN9PlayerEgo16PauseEngineSoundEv
_ZN9PlayerEgo16approachAsteroidEP3HudiP5Radar
_ZN9PlayerEgo16getRocketBankingEv
_ZN9PlayerEgo16getVolatileForceEv
_ZN9PlayerEgo16hackingRotateLCWEv
_ZN9PlayerEgo16hackingRotateRCWEv
_ZN9PlayerEgo16handleAutoTurretEi
_ZN9PlayerEgo16handleTurretViewEi
_ZN9PlayerEgo16hasVolatileGoodsEv
_ZN9PlayerEgo16isBoostRefreshedEv
_ZN9PlayerEgo16isDockedToPlanetEv
_ZN9PlayerEgo16isDockedToStreamEv
_ZN9PlayerEgo16isInFreeLookModeEv
_ZN9PlayerEgo16setDockingCameraEv
_ZN9PlayerEgo16setRocketControlEP3GunP10AEGeometry
_ZN9PlayerEgo17ResumeEngineSoundEv
_ZN9PlayerEgo17crosshairShootPosE
_ZN9PlayerEgo17deleteHackingGameEv
_ZN9PlayerEgo17getHullDamageRateEv
_ZN9PlayerEgo17getTurretPositionEv
_ZN9PlayerEgo17isDockingToPlanetEv
_ZN9PlayerEgo17isDockingToStreamEv
_ZN9PlayerEgo17isInRocketControlEv
_ZN9PlayerEgo17isRechargingCloakEv
_ZN9PlayerEgo17setExhaustVisibleEb
_ZN9PlayerEgo17setTurretPositionEN11AbyssEngine6AEMath6VectorE
_ZN9PlayerEgo18dockToDockingPointEP8KIPlayerP5Radar
_ZN9PlayerEgo18getAutoPilotTargetEv
_ZN9PlayerEgo18getBoostPercentageEv
_ZN9PlayerEgo18getDockTotalAmountEv
_ZN9PlayerEgo18getDriveChargeRateEv
_ZN9PlayerEgo18isDockedToAsteroidEv
_ZN9PlayerEgo18resetChargingDriveEv
_ZN9PlayerEgo18startSmokeEmissionEv
_ZN9PlayerEgo19autoTurretIsEnabledEv
_ZN9PlayerEgo19collidesWithStationEv
_ZN9PlayerEgo19getShieldDamageRateEv
_ZN9PlayerEgo19isDockingToAsteroidEv
_ZN9PlayerEgo19pitchAllPrimaryGunsEf
_ZN9PlayerEgo20addNukeVolatileForceEf
_ZN9PlayerEgo20approachDockingPointEP3HudiP5Radar
_ZN9PlayerEgo20getCloakRechargeRateEv
_ZN9PlayerEgo20isInDockingProcedureEv
_ZN9PlayerEgo20isLandingOrTakingOffEv
_ZN9PlayerEgo21emergencySystemActiveEv
_ZN9PlayerEgo21getCloakingPercentageEv
_ZN9PlayerEgo21getTargetFollowCameraEv
_ZN9PlayerEgo21isDockedToMiningPlantEv
_ZN9PlayerEgo21setComputerControlledEb
_ZN9PlayerEgo21setTargetFollowCameraEP18TargetFollowCamera
_ZN9PlayerEgo22aboutToReachAutoTargetEv
_ZN9PlayerEgo22getCurrentMiningAmountEv
_ZN9PlayerEgo22isDockedToDockingPointEv
_ZN9PlayerEgo23getDockTransferedAmountEv
_ZN9PlayerEgo23getHackingGameDockIndexEv
_ZN9PlayerEgo23isDockingToDockingPointEv
_ZN9PlayerEgo25shouldSwitchToFreeLookCamEv
_ZN9PlayerEgo25shouldSwitchToStandardCamEv
_ZN9PlayerEgo25tryToStartEmergencySystemEv
_ZN9PlayerEgo2upEif
_ZN9PlayerEgo30getCurrentSecondaryWeaponIndexEv
_ZN9PlayerEgo30setCurrentSecondaryWeaponIndexEi
_ZN9PlayerEgo32hideShipForFirstPersonCameraViewEb
_ZN9PlayerEgo4downEif
_ZN9PlayerEgo4drawEb
_ZN9PlayerEgo4leftEif
_ZN9PlayerEgo4rollEi
_ZN9PlayerEgo5boostEv
_ZN9PlayerEgo5rightEif
_ZN9PlayerEgo5shakeEi
_ZN9PlayerEgo5shootEii
_ZN9PlayerEgo6addGunEP3Guni
_ZN9PlayerEgo6addGunEP5ArrayIP3GunEi
_ZN9PlayerEgo6getHUDEv
_ZN9PlayerEgo6isDeadEv
_ZN9PlayerEgo6renderEb
_ZN9PlayerEgo6reviveEv
_ZN9PlayerEgo6rotateEfff
_ZN9PlayerEgo6strafeEib
_ZN9PlayerEgo6updateEiP5RadarP3HudP5RadioP11LevelScriptibi
_ZN9PlayerEgo6vec_upE
_ZN9PlayerEgo7explodeEv
_ZN9PlayerEgo7setShipEii
_ZN9PlayerEgo8boostingEv
_ZN9PlayerEgo8getRouteEv
_ZN9PlayerEgo8getSpeedEv
_ZN9PlayerEgo8hasCloakEv
_ZN9PlayerEgo8isMiningEv
_ZN9PlayerEgo8setLevelEP5Level
_ZN9PlayerEgo8setRouteEP5Route
_ZN9PlayerEgo8setSpeedEf
_ZN9PlayerEgo9getThrustEv
_ZN9PlayerEgo9hitCameraEv
_ZN9PlayerEgo9isCloakedEv
_ZN9PlayerEgo9isHackingEv
_ZN9PlayerEgo9setActiveEb
_ZN9PlayerEgo9setFreezeEb
_ZN9PlayerEgo9setThrustEf
_ZN9PlayerEgo9stopBoostEv
_ZN9PlayerEgoC1EP6Player
_ZN9PlayerEgoC2EP6Player
_ZN9PlayerEgoD1Ev
_ZN9PlayerEgoD2Ev
_ZN9RocketGun11isRocketGunEv
_ZN9RocketGun6renderEv
_ZN9RocketGun6updateEi
_ZN9RocketGun8setRadarEP5Radar
_ZN9RocketGun9seekEnemyEii
_ZN9RocketGun9translateERKN11AbyssEngine6AEMath6VectorE
_ZN9RocketGunC1EiP3GuniijibP5Level
_ZN9RocketGunC2EiP3GuniijibP5Level
_ZN9RocketGunD0Ev
_ZN9RocketGunD1Ev
_ZN9RocketGunD2Ev
_ZN9SentryGun6renderEv
_ZN9SentryGun6updateEi
_ZN9SentryGunC1EP3GuniiiP5Level
_ZN9SentryGunC2EP3GuniiiP5Level
_ZN9SentryGunD0Ev
_ZN9SentryGunD1Ev
_ZN9SentryGunD2Ev
_ZN9SpriteGun10setEnemiesEP5ArrayIP6PlayerE
_ZN9SpriteGun6renderEv
_ZN9SpriteGun6updateEi
_ZN9SpriteGun8setEnemyEP6Player
_ZN9SpriteGunC2EP3Guni
_ZN9SpriteGunD0Ev
_ZN9SpriteGunD1Ev
_ZN9SpriteGunD2Ev
_ZNK11AbyssEngine10Quaternion6LengthEv
_ZNK11AbyssEngine10Quaternion7InverseEv
_ZNK11AbyssEngine10QuaternioncvPKfEv
_ZNK11AbyssEngine10QuaternionixEi
_ZNK11AbyssEngine18ApplicationManager27GetCurrentApplicationModuleEv
_ZNK11AbyssEngine6AEMath6MatrixcvPKfEv
_ZNK11AbyssEngine6AEMath6VectorcvPKfEv
_ZNK11AbyssEngine6AEMath6VectorixEi
_ZNK11AbyssEngine6String10GetAEWCharEv
_ZNK11AbyssEngine6String9GetAECharEv
_ZNK11AbyssEngine6StringcvPKtEv
_ZNK11AbyssEngine6StringixEi
_ZNKSt10bad_typeid4whatEv
_ZNKSt13bad_exception4whatEv
_ZNKSt16bad_array_length4whatEv
_ZNKSt20bad_array_new_length4whatEv
_ZNKSt8bad_cast4whatEv
_ZNKSt9bad_alloc4whatEv
_ZNKSt9exception4whatEv
_ZNSt10bad_typeidC1Ev
_ZNSt10bad_typeidC2Ev
_ZNSt10bad_typeidD0Ev
_ZNSt10bad_typeidD1Ev
_ZNSt10bad_typeidD2Ev
_ZNSt13bad_exceptionD0Ev
_ZNSt13bad_exceptionD1Ev
_ZNSt13bad_exceptionD2Ev
_ZNSt16bad_array_lengthC1Ev
_ZNSt16bad_array_lengthC2Ev
_ZNSt16bad_array_lengthD0Ev
_ZNSt16bad_array_lengthD1Ev
_ZNSt16bad_array_lengthD2Ev
_ZNSt20bad_array_new_lengthC1Ev
_ZNSt20bad_array_new_lengthC2Ev
_ZNSt20bad_array_new_lengthD0Ev
_ZNSt20bad_array_new_lengthD1Ev
_ZNSt20bad_array_new_lengthD2Ev
_ZNSt8bad_castC1Ev
_ZNSt8bad_castC2Ev
_ZNSt8bad_castD0Ev
_ZNSt8bad_castD1Ev
_ZNSt8bad_castD2Ev
_ZNSt9bad_allocC1Ev
_ZNSt9bad_allocC2Ev
_ZNSt9bad_allocD0Ev
_ZNSt9bad_allocD1Ev
_ZNSt9bad_allocD2Ev
_ZNSt9exceptionD0Ev
_ZNSt9exceptionD1Ev
_ZNSt9exceptionD2Ev
_ZNSt9type_infoD0Ev
_ZNSt9type_infoD1Ev
_ZNSt9type_infoD2Ev
_ZSt10unexpectedv
_ZSt13get_terminatev
_ZSt13set_terminatePFvvE
_ZSt14get_unexpectedv
_ZSt14set_unexpectedPFvvE
_ZSt15get_new_handlerv
_ZSt15set_new_handlerPFvvE
_ZSt9terminatev
_ZTI10ModStation
_ZTI10PlayerJunk
_ZTI11AbstractGun
_ZTI11BoundingAAB
_ZTI11ModMainMenu
_ZTI12AENormalFile
_ZTI12PlayerStatic
_ZTI12PlayerTurret
_ZTI13FileInterface
_ZTI13PlayerFighter
_ZTI13PlayerStation
_ZTI14AELowLevelFile
_ZTI14BoundingSphere
_ZTI14BoundingVolume
_ZTI14PlayerAsteroid
_ZTI14PlayerCreature
_ZTI14PlayerGasCloud
_ZTI14PlayerJumpgate
_ZTI14PlayerWormHole
_ZTI15IParticleSystem
_ZTI15PlayerStaticFar
_ZTI17PlayerFixedObject
_ZTI18ParticleSystemMesh
_ZTI20FileInterfaceAndroid
_ZTI20ParticleSystemSprite
_ZTI5MGame
_ZTI6MTitle
_ZTI7BeamGun
_ZTI7BombGun
_ZTI7MineGun
_ZTI7Mission
_ZTI8KIPlayer
_ZTI8Waypoint
_ZTI9AEPakFile
_ZTI9ObjectGun
_ZTI9RocketGun
_ZTI9SentryGun
_ZTI9SpriteGun
_ZTIDh
_ZTIDi
_ZTIDn
_ZTIDs
_ZTIN10__cxxabiv116__enum_type_infoE
_ZTIN10__cxxabiv116__shim_type_infoE
_ZTIN10__cxxabiv117__array_type_infoE
_ZTIN10__cxxabiv117__class_type_infoE
_ZTIN10__cxxabiv117__pbase_type_infoE
_ZTIN10__cxxabiv119__pointer_type_infoE
_ZTIN10__cxxabiv120__function_type_infoE
_ZTIN10__cxxabiv120__si_class_type_infoE
_ZTIN10__cxxabiv121__vmi_class_type_infoE
_ZTIN10__cxxabiv123__fundamental_type_infoE
_ZTIN10__cxxabiv129__pointer_to_member_type_infoE
_ZTIN11AbyssEngine10BlurShaderE
_ZTIN11AbyssEngine10BumpShaderE
_ZTIN11AbyssEngine10GlowShaderE
_ZTIN11AbyssEngine10MaskShaderE
_ZTIN11AbyssEngine11BloomShaderE
_ZTIN11AbyssEngine11BumpMappingE
_ZTIN11AbyssEngine11ColorMixAddE
_ZTIN11AbyssEngine11CubeMappingE
_ZTIN11AbyssEngine11GreenShaderE
_ZTIN11AbyssEngine11NoTexShaderE
_ZTIN11AbyssEngine11PulseShaderE
_ZTIN11AbyssEngine12BumpShaderV2E
_ZTIN11AbyssEngine12BumpShaderV3E
_ZTIN11AbyssEngine12BumpShaderV4E
_ZTIN11AbyssEngine12EnergyShieldE
_ZTIN11AbyssEngine12GlowPPShaderE
_ZTIN11AbyssEngine12PostBWShaderE
_ZTIN11AbyssEngine12SimpleShaderE
_ZTIN11AbyssEngine13DrawFBOShaderE
_ZTIN11AbyssEngine13GenericShaderE
_ZTIN11AbyssEngine13SandboxShaderE
_ZTIN11AbyssEngine13TexOnlyShaderE
_ZTIN11AbyssEngine13TextureShaderE
_ZTIN11AbyssEngine14GenericShader1E
_ZTIN11AbyssEngine14GenericShader2E
_ZTIN11AbyssEngine15BumpShaderCloakE
_ZTIN11AbyssEngine15SpecCubeMappingE
_ZTIN11AbyssEngine16AESoundInterfaceE
_ZTIN11AbyssEngine16ShaderBaseStructE
_ZTIN11AbyssEngine17BumpRimCubeShaderE
_ZTIN11AbyssEngine17BumpShaderRefractE
_ZTIN11AbyssEngine17CubeNormalMappingE
_ZTIN11AbyssEngine17TextureConferenceE
_ZTIN11AbyssEngine17VertexColorShaderE
_ZTIN11AbyssEngine18BumpShaderParticleE
_ZTIN11AbyssEngine18IApplicationModuleE
_ZTIN11AbyssEngine18TextureLightShaderE
_ZTIN11AbyssEngine19NoTexVtxColorShaderE
_ZTIN11AbyssEngine20SpecCubeAlphaMappingE
_ZTIN11AbyssEngine21BumpRimCubeShader_newE
_ZTIN11AbyssEngine21TextureVtxColorShaderE
_ZTIN11AbyssEngine22SimpleRefractionShaderE
_ZTIN11AbyssEngine22TextureAlphaTestShaderE
_ZTIN11AbyssEngine29VertexColorAlphaTextureShaderE
_ZTIN11AbyssEngine6StringE
_ZTIN11AbyssEngine7AESoundE
_ZTIN11AbyssEngine9DNSShaderE
_ZTIPDh
_ZTIPDi
_ZTIPDn
_ZTIPDs
_ZTIPKDh
_ZTIPKDi
_ZTIPKDn
_ZTIPKDs
_ZTIPKa
_ZTIPKb
_ZTIPKc
_ZTIPKd
_ZTIPKe
_ZTIPKf
_ZTIPKg
_ZTIPKh
_ZTIPKi
_ZTIPKj
_ZTIPKl
_ZTIPKm
_ZTIPKn
_ZTIPKo
_ZTIPKs
_ZTIPKt
_ZTIPKv
_ZTIPKw
_ZTIPKx
_ZTIPKy
_ZTIPa
_ZTIPb
_ZTIPc
_ZTIPd
_ZTIPe
_ZTIPf
_ZTIPg
_ZTIPh
_ZTIPi
_ZTIPj
_ZTIPl
_ZTIPm
_ZTIPn
_ZTIPo
_ZTIPs
_ZTIPt
_ZTIPv
_ZTIPw
_ZTIPx
_ZTIPy
_ZTISt10bad_typeid
_ZTISt13bad_exception
_ZTISt16bad_array_length
_ZTISt20bad_array_new_length
_ZTISt8bad_cast
_ZTISt9bad_alloc
_ZTISt9exception
_ZTISt9type_info
_ZTIa
_ZTIb
_ZTIc
_ZTId
_ZTIe
_ZTIf
_ZTIg
_ZTIh
_ZTIi
_ZTIj
_ZTIl
_ZTIm
_ZTIn
_ZTIo
_ZTIs
_ZTIt
_ZTIv
_ZTIw
_ZTIx
_ZTIy
_ZTS10ModStation
_ZTS10PlayerJunk
_ZTS11AbstractGun
_ZTS11BoundingAAB
_ZTS11ModMainMenu
_ZTS12AENormalFile
_ZTS12PlayerStatic
_ZTS12PlayerTurret
_ZTS13FileInterface
_ZTS13PlayerFighter
_ZTS13PlayerStation
_ZTS14AELowLevelFile
_ZTS14BoundingSphere
_ZTS14BoundingVolume
_ZTS14PlayerAsteroid
_ZTS14PlayerCreature
_ZTS14PlayerGasCloud
_ZTS14PlayerJumpgate
_ZTS14PlayerWormHole
_ZTS15IParticleSystem
_ZTS15PlayerStaticFar
_ZTS17PlayerFixedObject
_ZTS18ParticleSystemMesh
_ZTS20FileInterfaceAndroid
_ZTS20ParticleSystemSprite
_ZTS5MGame
_ZTS6MTitle
_ZTS7BeamGun
_ZTS7BombGun
_ZTS7MineGun
_ZTS7Mission
_ZTS8KIPlayer
_ZTS8Waypoint
_ZTS9AEPakFile
_ZTS9ObjectGun
_ZTS9RocketGun
_ZTS9SentryGun
_ZTS9SpriteGun
_ZTSDh
_ZTSDi
_ZTSDn
_ZTSDs
_ZTSN10__cxxabiv116__enum_type_infoE
_ZTSN10__cxxabiv116__shim_type_infoE
_ZTSN10__cxxabiv117__array_type_infoE
_ZTSN10__cxxabiv117__class_type_infoE
_ZTSN10__cxxabiv117__pbase_type_infoE
_ZTSN10__cxxabiv119__pointer_type_infoE
_ZTSN10__cxxabiv120__function_type_infoE
_ZTSN10__cxxabiv120__si_class_type_infoE
_ZTSN10__cxxabiv121__vmi_class_type_infoE
_ZTSN10__cxxabiv123__fundamental_type_infoE
_ZTSN10__cxxabiv129__pointer_to_member_type_infoE
_ZTSN11AbyssEngine10BlurShaderE
_ZTSN11AbyssEngine10BumpShaderE
_ZTSN11AbyssEngine10GlowShaderE
_ZTSN11AbyssEngine10MaskShaderE
_ZTSN11AbyssEngine11BloomShaderE
_ZTSN11AbyssEngine11BumpMappingE
_ZTSN11AbyssEngine11ColorMixAddE
_ZTSN11AbyssEngine11CubeMappingE
_ZTSN11AbyssEngine11GreenShaderE
_ZTSN11AbyssEngine11NoTexShaderE
_ZTSN11AbyssEngine11PulseShaderE
_ZTSN11AbyssEngine12BumpShaderV2E
_ZTSN11AbyssEngine12BumpShaderV3E
_ZTSN11AbyssEngine12BumpShaderV4E
_ZTSN11AbyssEngine12EnergyShieldE
_ZTSN11AbyssEngine12GlowPPShaderE
_ZTSN11AbyssEngine12PostBWShaderE
_ZTSN11AbyssEngine12SimpleShaderE
_ZTSN11AbyssEngine13DrawFBOShaderE
_ZTSN11AbyssEngine13GenericShaderE
_ZTSN11AbyssEngine13SandboxShaderE
_ZTSN11AbyssEngine13TexOnlyShaderE
_ZTSN11AbyssEngine13TextureShaderE
_ZTSN11AbyssEngine14GenericShader1E
_ZTSN11AbyssEngine14GenericShader2E
_ZTSN11AbyssEngine15BumpShaderCloakE
_ZTSN11AbyssEngine15SpecCubeMappingE
_ZTSN11AbyssEngine16AESoundInterfaceE
_ZTSN11AbyssEngine16ShaderBaseStructE
_ZTSN11AbyssEngine17BumpRimCubeShaderE
_ZTSN11AbyssEngine17BumpShaderRefractE
_ZTSN11AbyssEngine17CubeNormalMappingE
_ZTSN11AbyssEngine17TextureConferenceE
_ZTSN11AbyssEngine17VertexColorShaderE
_ZTSN11AbyssEngine18BumpShaderParticleE
_ZTSN11AbyssEngine18IApplicationModuleE
_ZTSN11AbyssEngine18TextureLightShaderE
_ZTSN11AbyssEngine19NoTexVtxColorShaderE
_ZTSN11AbyssEngine20SpecCubeAlphaMappingE
_ZTSN11AbyssEngine21BumpRimCubeShader_newE
_ZTSN11AbyssEngine21TextureVtxColorShaderE
_ZTSN11AbyssEngine22SimpleRefractionShaderE
_ZTSN11AbyssEngine22TextureAlphaTestShaderE
_ZTSN11AbyssEngine29VertexColorAlphaTextureShaderE
_ZTSN11AbyssEngine6StringE
_ZTSN11AbyssEngine7AESoundE
_ZTSN11AbyssEngine9DNSShaderE
_ZTSPDh
_ZTSPDi
_ZTSPDn
_ZTSPDs
_ZTSPKDh
_ZTSPKDi
_ZTSPKDn
_ZTSPKDs
_ZTSPKa
_ZTSPKb
_ZTSPKc
_ZTSPKd
_ZTSPKe
_ZTSPKf
_ZTSPKg
_ZTSPKh
_ZTSPKi
_ZTSPKj
_ZTSPKl
_ZTSPKm
_ZTSPKn
_ZTSPKo
_ZTSPKs
_ZTSPKt
_ZTSPKv
_ZTSPKw
_ZTSPKx
_ZTSPKy
_ZTSPa
_ZTSPb
_ZTSPc
_ZTSPd
_ZTSPe
_ZTSPf
_ZTSPg
_ZTSPh
_ZTSPi
_ZTSPj
_ZTSPl
_ZTSPm
_ZTSPn
_ZTSPo
_ZTSPs
_ZTSPt
_ZTSPv
_ZTSPw
_ZTSPx
_ZTSPy
_ZTSSt10bad_typeid
_ZTSSt13bad_exception
_ZTSSt16bad_array_length
_ZTSSt20bad_array_new_length
_ZTSSt8bad_cast
_ZTSSt9bad_alloc
_ZTSSt9exception
_ZTSSt9type_info
_ZTSa
_ZTSb
_ZTSc
_ZTSd
_ZTSe
_ZTSf
_ZTSg
_ZTSh
_ZTSi
_ZTSj
_ZTSl
_ZTSm
_ZTSn
_ZTSo
_ZTSs
_ZTSt
_ZTSv
_ZTSw
_ZTSx
_ZTSy
_ZTV10ModStation
_ZTV10PlayerJunk
_ZTV11BoundingAAB
_ZTV11ModMainMenu
_ZTV12AENormalFile
_ZTV12PlayerStatic
_ZTV12PlayerTurret
_ZTV13PlayerFighter
_ZTV13PlayerStation
_ZTV14BoundingSphere
_ZTV14BoundingVolume
_ZTV14PlayerAsteroid
_ZTV14PlayerCreature
_ZTV14PlayerGasCloud
_ZTV14PlayerJumpgate
_ZTV14PlayerWormHole
_ZTV15IParticleSystem
_ZTV15PlayerStaticFar
_ZTV17PlayerFixedObject
_ZTV18ParticleSystemMesh
_ZTV20FileInterfaceAndroid
_ZTV20ParticleSystemSprite
_ZTV5MGame
_ZTV6MTitle
_ZTV7BeamGun
_ZTV7BombGun
_ZTV7MineGun
_ZTV7Mission
_ZTV8KIPlayer
_ZTV8Waypoint
_ZTV9AEPakFile
_ZTV9ObjectGun
_ZTV9RocketGun
_ZTV9SentryGun
_ZTV9SpriteGun
_ZTVN10__cxxabiv116__enum_type_infoE
_ZTVN10__cxxabiv116__shim_type_infoE
_ZTVN10__cxxabiv117__array_type_infoE
_ZTVN10__cxxabiv117__class_type_infoE
_ZTVN10__cxxabiv117__pbase_type_infoE
_ZTVN10__cxxabiv119__pointer_type_infoE
_ZTVN10__cxxabiv120__function_type_infoE
_ZTVN10__cxxabiv120__si_class_type_infoE
_ZTVN10__cxxabiv121__vmi_class_type_infoE
_ZTVN10__cxxabiv123__fundamental_type_infoE
_ZTVN10__cxxabiv129__pointer_to_member_type_infoE
_ZTVN11AbyssEngine10BlurShaderE
_ZTVN11AbyssEngine10BumpShaderE
_ZTVN11AbyssEngine10GlowShaderE
_ZTVN11AbyssEngine10MaskShaderE
_ZTVN11AbyssEngine11BloomShaderE
_ZTVN11AbyssEngine11BumpMappingE
_ZTVN11AbyssEngine11ColorMixAddE
_ZTVN11AbyssEngine11CubeMappingE
_ZTVN11AbyssEngine11GreenShaderE
_ZTVN11AbyssEngine11NoTexShaderE
_ZTVN11AbyssEngine11PulseShaderE
_ZTVN11AbyssEngine12BumpShaderV2E
_ZTVN11AbyssEngine12BumpShaderV3E
_ZTVN11AbyssEngine12BumpShaderV4E
_ZTVN11AbyssEngine12EnergyShieldE
_ZTVN11AbyssEngine12GlowPPShaderE
_ZTVN11AbyssEngine12PostBWShaderE
_ZTVN11AbyssEngine12SimpleShaderE
_ZTVN11AbyssEngine13DrawFBOShaderE
_ZTVN11AbyssEngine13GenericShaderE
_ZTVN11AbyssEngine13SandboxShaderE
_ZTVN11AbyssEngine13TexOnlyShaderE
_ZTVN11AbyssEngine13TextureShaderE
_ZTVN11AbyssEngine14GenericShader1E
_ZTVN11AbyssEngine14GenericShader2E
_ZTVN11AbyssEngine15BumpShaderCloakE
_ZTVN11AbyssEngine15SpecCubeMappingE
_ZTVN11AbyssEngine16ShaderBaseStructE
_ZTVN11AbyssEngine17BumpRimCubeShaderE
_ZTVN11AbyssEngine17BumpShaderRefractE
_ZTVN11AbyssEngine17CubeNormalMappingE
_ZTVN11AbyssEngine17TextureConferenceE
_ZTVN11AbyssEngine17VertexColorShaderE
_ZTVN11AbyssEngine18BumpShaderParticleE
_ZTVN11AbyssEngine18TextureLightShaderE
_ZTVN11AbyssEngine19NoTexVtxColorShaderE
_ZTVN11AbyssEngine20SpecCubeAlphaMappingE
_ZTVN11AbyssEngine21BumpRimCubeShader_newE
_ZTVN11AbyssEngine21TextureVtxColorShaderE
_ZTVN11AbyssEngine22SimpleRefractionShaderE
_ZTVN11AbyssEngine22TextureAlphaTestShaderE
_ZTVN11AbyssEngine29VertexColorAlphaTextureShaderE
_ZTVN11AbyssEngine6StringE
_ZTVN11AbyssEngine7AESoundE
_ZTVN11AbyssEngine9DNSShaderE
_ZTVSt10bad_typeid
_ZTVSt13bad_exception
_ZTVSt16bad_array_length
_ZTVSt20bad_array_new_length
_ZTVSt8bad_cast
_ZTVSt9bad_alloc
_ZTVSt9exception
_ZTVSt9type_info
_ZdaPv
_ZdaPvRKSt9nothrow_t
_ZdaPvSt11align_val_t
_ZdaPvSt11align_val_tRKSt9nothrow_t
_ZdaPvj
_ZdaPvjSt11align_val_t
_ZdlPv
_ZdlPvRKSt9nothrow_t
_ZdlPvSt11align_val_t
_ZdlPvSt11align_val_tRKSt9nothrow_t
_ZdlPvj
_ZdlPvjSt11align_val_t
_Znaj
_ZnajRKSt9nothrow_t
_ZnajSt11align_val_t
_ZnajSt11align_val_tRKSt9nothrow_t
_Znwj
_ZnwjRKSt9nothrow_t
_ZnwjSt11align_val_t
_ZnwjSt11align_val_tRKSt9nothrow_t
__bss_start
__cxa_allocate_dependent_exception
__cxa_allocate_exception
__cxa_begin_catch
__cxa_begin_cleanup
__cxa_call_unexpected
__cxa_current_exception_type
__cxa_current_primary_exception
__cxa_decrement_exception_refcount
__cxa_deleted_virtual
__cxa_demangle
__cxa_end_catch
__cxa_end_cleanup
__cxa_free_dependent_exception
__cxa_free_exception
__cxa_get_exception_ptr
__cxa_get_globals
__cxa_get_globals_fast
__cxa_guard_abort
__cxa_guard_acquire
__cxa_guard_release
__cxa_increment_exception_refcount
__cxa_new_handler
__cxa_pure_virtual
__cxa_rethrow
__cxa_rethrow_primary_exception
__cxa_terminate_handler
__cxa_throw
__cxa_uncaught_exception
__cxa_uncaught_exceptions
__cxa_unexpected_handler
__dynamic_cast
__gxx_personality_v0
_armv7_neon_probe
_armv7_tick
_armv8_aes_probe
_armv8_pmull_probe
_armv8_sha1_probe
_armv8_sha256_probe
_dist_code
_edata
_end
_length_code
_tr_align
_tr_flush_block
_tr_init
_tr_stored_block
_tr_tally
_zip_cdir_free
_zip_cdir_grow
_zip_cdir_new
_zip_cdir_write
_zip_dirent_finalize
_zip_dirent_init
_zip_dirent_read
_zip_dirent_torrent_normalize
_zip_dirent_write
_zip_entry_free
_zip_entry_new
_zip_err_str
_zip_err_type
_zip_error_clear
_zip_error_copy
_zip_error_fini
_zip_error_get
_zip_error_init
_zip_error_set
_zip_error_strerror
_zip_file_fillbuf
_zip_file_get_offset
_zip_filerange_crc
_zip_free
_zip_get_name
_zip_memdup
_zip_mkstemp
_zip_name_locate
_zip_nerr_str
_zip_new
_zip_read2
_zip_read4
_zip_replace
_zip_set_name
_zip_source_file_or_p
_zip_unchange
_zip_unchange_data
adler32
adler32_combine
checkFirstCreditPackBoughtWriteAction
compress
compress2
compressBound
crc32
crc32_combine
curTouchSize
currentstate
dataDirectory
decrypt
deflate
deflateBound
deflateCopy
deflateEnd
deflateInit2_
deflateInit_
deflateParams
deflatePrime
deflateReset
deflateSetDictionary
deflateSetHeader
deflateTune
deflate_copyright
flstat_rootPath
forceExit
gEngine
gRealHeight
gRealWidth
g_android_back_button_pressed
g_android_current_achievements
g_android_gp_is_linked
g_android_leaderboard_scores
g_android_link_game_gp
g_android_origami_super_club
g_android_show_achievements
g_android_show_leaderboards
g_pActivity
g_pClass
g_pEnv
g_pVM
gb_android_offerwallCreditAmount
getStringUTFChars
get_crc_table
gi_iap_buy_credit_pack1_pressed
gi_iap_buy_credit_pack2_pressed
gi_iap_buy_credit_pack3_pressed
gi_iap_buy_credit_pack4_pressed
gi_iap_buy_credit_pack5_pressed
gi_iap_buy_dlc1_pressed
gi_iap_buy_dlc2_pressed
gi_iap_buy_dlc3_pressed
gi_iap_buy_dlc4_pressed
gi_iap_buy_dlc5_pressed
glAlphaFunc
glClientActiveTexture
glColor4f
glColorPointer
glDisableClientState
glEnableClientState
glFogf
glFogfv
glHint
glLightModelfv
glLightfv
glLoadIdentity
glLoadMatrixf
glMaterialf
glMaterialfv
glMatrixMode
glMultMatrixf
glNormalPointer
glScalef
glShadeModel
glTexCoordPointer
glTexEnvf
glTexEnvi
glVertexPointer
hrwhs_country_code
inflate
inflateBack
inflateBackEnd
inflateBackInit_
inflateCopy
inflateEnd
inflateGetHeader
inflateInit2_
inflateInit_
inflatePrime
inflateReset
inflateSetDictionary
inflateSync
inflateSyncPoint
inflate_copyright
inflate_fast
inflate_table
keys
loadAPK
loadAPKAndZip
maxTouchSize
ndk23_Init
ndk23_InitWithZip
ndk23_getCurrentFiredStatus
ndk23_getExitFlag
ndk23_getScreenshotFlag
ndk23_handleAcceleration
ndk23_handleTouchPadEvent
ndk23_handleTouchScreenEvent
ndk23_ndkDone
ndk23_newrender
ndk23_resetScreenshotFlag
ndk23_resize
ndk23_sendingPauseSignal
ndk23_sendingResumeSignal
ndk23_setCountryCode
ndk23_setDisplayHeightAndWidth
ndk23_setRootDirectory
ndk23_setZipDirectory
ndkEntrance
ndk_APK_Path
ndk_ZIP_Path
ndk_autosave
ndk_checkPlaytimeAndSpendOfferwallCredits
ndk_getCurrentApplicationModule
ndk_getDLC_1_BOUGHT
ndk_getDLC_2_BOUGHT
ndk_getDLC_3_BOUGHT
ndk_getDLC_4_BOUGHT
ndk_getDLC_5_BOUGHT
ndk_getLogoShown
ndk_iapBoughtConsumable
ndk_iapBoughtPremium
ndk_isInMainMenu
ndk_resetNativeItemInformationList
ndk_setNativeItemInformationList
opensubkeyfile
pConstToNonConst
property_name_pause
property_name_purge
releaseStringUTFChars
rootDirectory
rotateAccelValues
setBaughtCredits
sha256_block_data_order
sha256_block_data_order_neon
sound_off
stackX
stackY
stateChanged
touches
uncompress
wheelStack
zError
z_errmsg
zcalloc
zcfree
zipDirectory
zip_add
zip_add_dir
zip_close
zip_delete
zip_error_clear
zip_error_get
zip_error_get_sys_type
zip_error_to_str
zip_fclose
zip_file_error_clear
zip_file_error_get
zip_file_strerror
zip_fopen
zip_fopen_index
zip_fread
zip_get_archive_comment
zip_get_archive_flag
zip_get_file_comment
zip_get_name
zip_get_num_files
zip_name_locate
zip_open
zip_rename
zip_replace
zip_set_archive_comment
zip_set_archive_flag
zip_set_file_comment
zip_source_buffer
zip_source_file
zip_source_filep
zip_source_free
zip_source_function
zip_source_zip
zip_stat
zip_stat_index
zip_stat_init
zip_strerror
zip_unchange
zip_unchange_all
zip_unchange_archive
zlibCompileFlags
zlibVersion
